

Microchip MPLAB XC8 Assembler V3.10 build 20250813170317 
                                                                                               Sun Jan 25 17:26:34 2026

Microchip MPLAB XC8 C Compiler v3.10 (Free license) build 20250813170317 Og1 
     1                           	processor	16F877A
     2                           	pagewidth 120
     3                           	opt	flic
     4                           	psect	idataCOMMON,global,class=CODE,space=0,delta=2,noexec
     5                           	psect	idataBANK0,global,class=CODE,space=0,delta=2,noexec
     6                           	psect	strings,global,class=STRING,space=0,delta=2,noexec
     7                           	psect	cinit,global,class=CODE,space=0,merge=1,delta=2
     8                           	psect	bssCOMMON,global,class=COMMON,space=1,delta=1,noexec
     9                           	psect	dataCOMMON,global,class=COMMON,space=1,delta=1,noexec
    10                           	psect	bssBANK0,global,class=BANK0,space=1,delta=1,noexec
    11                           	psect	dataBANK0,global,class=BANK0,space=1,delta=1,noexec
    12                           	psect	cstackCOMMON,global,class=COMMON,space=1,delta=1,noexec
    13                           	psect	cstackBANK0,global,class=BANK0,space=1,delta=1,noexec
    14                           	psect	maintext,global,class=CODE,space=0,split=1,delta=2
    15                           	psect	text1,local,class=CODE,space=0,merge=1,delta=2
    16                           	psect	text2,local,class=CODE,space=0,merge=1,delta=2
    17                           	psect	text3,local,class=CODE,space=0,merge=1,delta=2,group=1
    18                           	psect	text4,local,class=CODE,space=0,merge=1,delta=2
    19                           	psect	text5,local,class=CODE,space=0,merge=1,delta=2
    20                           	psect	text6,local,class=CODE,space=0,merge=1,delta=2
    21                           	psect	text7,local,class=CODE,space=0,merge=1,delta=2
    22                           	psect	text8,local,class=CODE,space=0,merge=1,delta=2
    23                           	psect	text9,local,class=CODE,space=0,merge=1,delta=2
    24                           	psect	text10,local,class=CODE,space=0,merge=1,delta=2,group=1
    25                           	psect	text11,local,class=CODE,space=0,merge=1,delta=2,group=1
    26                           	psect	text12,local,class=CODE,space=0,merge=1,delta=2
    27                           	psect	text13,local,class=CODE,space=0,merge=1,delta=2
    28                           	psect	text14,local,class=CODE,space=0,merge=1,delta=2
    29                           	psect	text15,local,class=CODE,space=0,merge=1,delta=2
    30                           	psect	text16,local,class=CODE,space=0,merge=1,delta=2
    31                           	psect	text17,local,class=CODE,space=0,merge=1,delta=2
    32                           	psect	text18,local,class=CODE,space=0,merge=1,delta=2
    33                           	psect	text19,local,class=CODE,space=0,merge=1,delta=2
    34                           	psect	text20,local,class=CODE,space=0,merge=1,delta=2
    35                           	psect	text21,local,class=CODE,space=0,merge=1,delta=2
    36                           	psect	intentry,global,class=CODE,space=0,delta=2
    37                           	psect	config,global,abs,ovrld,class=CONFIG,space=4,delta=2,noexec
    38                           	dabs	1,0x7E,2
    39     0000                     
    40                           ; Version 2.20
    41                           ; Generated 12/02/2020 GMT
    42                           ; 
    43                           ; Copyright © 2020, Microchip Technology Inc. and its subsidiaries ("Microchip")
    44                           ; All rights reserved.
    45                           ; 
    46                           ; This software is developed by Microchip Technology Inc. and its subsidiaries ("Microch
      +                          ip").
    47                           ; 
    48                           ; Redistribution and use in source and binary forms, with or without modification, are
    49                           ; permitted provided that the following conditions are met:
    50                           ; 
    51                           ;     1. Redistributions of source code must retain the above copyright notice, this lis
      +                          t of
    52                           ;        conditions and the following disclaimer.
    53                           ; 
    54                           ;     2. Redistributions in binary form must reproduce the above copyright notice, this 
      +                          list
    55                           ;        of conditions and the following disclaimer in the documentation and/or other
    56                           ;        materials provided with the distribution.
    57                           ; 
    58                           ;     3. Microchip's name may not be used to endorse or promote products derived from th
      +                          is
    59                           ;        software without specific prior written permission.
    60                           ; 
    61                           ; THIS SOFTWARE IS PROVIDED BY MICROCHIP "AS IS" AND ANY EXPRESS OR IMPLIED WARRANTIES,
    62                           ; INCLUDING, BUT NOT LIMITED TO, THE IMPLIED WARRANTIES OF MERCHANTABILITY AND FITNESS F
      +                          OR
    63                           ; PURPOSE ARE DISCLAIMED.  IN NO EVENT SHALL MICROCHIP BE LIABLE FOR ANY DIRECT, INDIREC
      +                          T,
    64                           ; INCIDENTAL, SPECIAL, EXEMPLARY, OR CONSEQUENTIAL DAMAGES (INCLUDING BUT NOT LIMITED TO
    65                           ; PROCUREMENT OF SUBSTITUTE GOODS OR SERVICES; LOSS OF USE, DATA OR PROFITS; OR BUSINESS
    66                           ; INTERRUPTION) HOWSOEVER CAUSED AND ON ANY THEORY OF LIABILITY, WHETHER IN CONTRACT, ST
      +                          RICT
    67                           ; LIABILITY, OR TORT (INCLUDING NEGLIGENCE OR OTHERWISE) ARISING IN ANY WAY OUT OF THE U
      +                          SE OF
    68                           ; THIS SOFTWARE, EVEN IF ADVISED OF THE POSSIBILITY OF SUCH DAMAGE.
    69                           ; 
    70                           ; 
    71                           ; Code-generator required, PIC16F877A Definitions
    72                           ; 
    73                           ; SFR Addresses
    74     0004                     fsr             equ	4
    75     0004                     fsr0            equ	4
    76     0000                     indf            equ	0
    77     0000                     indf0           equ	0
    78     0002                     pc              equ	2
    79     0002                     pcl             equ	2
    80     000A                     pclath          equ	10
    81     0003                     status          equ	3
    82     0000                     INDF            equ	0	;# 
    83     0001                     TMR0            equ	1	;# 
    84     0002                     PCL             equ	2	;# 
    85     0003                     STATUS          equ	3	;# 
    86     0004                     FSR             equ	4	;# 
    87     0005                     PORTA           equ	5	;# 
    88     0006                     PORTB           equ	6	;# 
    89     0007                     PORTC           equ	7	;# 
    90     0008                     PORTD           equ	8	;# 
    91     0009                     PORTE           equ	9	;# 
    92     000A                     PCLATH          equ	10	;# 
    93     000B                     INTCON          equ	11	;# 
    94     000C                     PIR1            equ	12	;# 
    95     000D                     PIR2            equ	13	;# 
    96     000E                     TMR1            equ	14	;# 
    97     000E                     TMR1L           equ	14	;# 
    98     000F                     TMR1H           equ	15	;# 
    99     0010                     T1CON           equ	16	;# 
   100     0011                     TMR2            equ	17	;# 
   101     0012                     T2CON           equ	18	;# 
   102     0013                     SSPBUF          equ	19	;# 
   103     0014                     SSPCON          equ	20	;# 
   104     0015                     CCPR1           equ	21	;# 
   105     0015                     CCPR1L          equ	21	;# 
   106     0016                     CCPR1H          equ	22	;# 
   107     0017                     CCP1CON         equ	23	;# 
   108     0018                     RCSTA           equ	24	;# 
   109     0019                     TXREG           equ	25	;# 
   110     001A                     RCREG           equ	26	;# 
   111     001B                     CCPR2           equ	27	;# 
   112     001B                     CCPR2L          equ	27	;# 
   113     001C                     CCPR2H          equ	28	;# 
   114     001D                     CCP2CON         equ	29	;# 
   115     001E                     ADRESH          equ	30	;# 
   116     001F                     ADCON0          equ	31	;# 
   117     0081                     OPTION_REG      equ	129	;# 
   118     0085                     TRISA           equ	133	;# 
   119     0086                     TRISB           equ	134	;# 
   120     0087                     TRISC           equ	135	;# 
   121     0088                     TRISD           equ	136	;# 
   122     0089                     TRISE           equ	137	;# 
   123     008C                     PIE1            equ	140	;# 
   124     008D                     PIE2            equ	141	;# 
   125     008E                     PCON            equ	142	;# 
   126     0091                     SSPCON2         equ	145	;# 
   127     0092                     PR2             equ	146	;# 
   128     0093                     SSPADD          equ	147	;# 
   129     0094                     SSPSTAT         equ	148	;# 
   130     0098                     TXSTA           equ	152	;# 
   131     0099                     SPBRG           equ	153	;# 
   132     009C                     CMCON           equ	156	;# 
   133     009D                     CVRCON          equ	157	;# 
   134     009E                     ADRESL          equ	158	;# 
   135     009F                     ADCON1          equ	159	;# 
   136     010C                     EEDATA          equ	268	;# 
   137     010D                     EEADR           equ	269	;# 
   138     010E                     EEDATH          equ	270	;# 
   139     010F                     EEADRH          equ	271	;# 
   140     018C                     EECON1          equ	396	;# 
   141     018D                     EECON2          equ	397	;# 
   142     0000                     INDF            equ	0	;# 
   143     0001                     TMR0            equ	1	;# 
   144     0002                     PCL             equ	2	;# 
   145     0003                     STATUS          equ	3	;# 
   146     0004                     FSR             equ	4	;# 
   147     0005                     PORTA           equ	5	;# 
   148     0006                     PORTB           equ	6	;# 
   149     0007                     PORTC           equ	7	;# 
   150     0008                     PORTD           equ	8	;# 
   151     0009                     PORTE           equ	9	;# 
   152     000A                     PCLATH          equ	10	;# 
   153     000B                     INTCON          equ	11	;# 
   154     000C                     PIR1            equ	12	;# 
   155     000D                     PIR2            equ	13	;# 
   156     000E                     TMR1            equ	14	;# 
   157     000E                     TMR1L           equ	14	;# 
   158     000F                     TMR1H           equ	15	;# 
   159     0010                     T1CON           equ	16	;# 
   160     0011                     TMR2            equ	17	;# 
   161     0012                     T2CON           equ	18	;# 
   162     0013                     SSPBUF          equ	19	;# 
   163     0014                     SSPCON          equ	20	;# 
   164     0015                     CCPR1           equ	21	;# 
   165     0015                     CCPR1L          equ	21	;# 
   166     0016                     CCPR1H          equ	22	;# 
   167     0017                     CCP1CON         equ	23	;# 
   168     0018                     RCSTA           equ	24	;# 
   169     0019                     TXREG           equ	25	;# 
   170     001A                     RCREG           equ	26	;# 
   171     001B                     CCPR2           equ	27	;# 
   172     001B                     CCPR2L          equ	27	;# 
   173     001C                     CCPR2H          equ	28	;# 
   174     001D                     CCP2CON         equ	29	;# 
   175     001E                     ADRESH          equ	30	;# 
   176     001F                     ADCON0          equ	31	;# 
   177     0081                     OPTION_REG      equ	129	;# 
   178     0085                     TRISA           equ	133	;# 
   179     0086                     TRISB           equ	134	;# 
   180     0087                     TRISC           equ	135	;# 
   181     0088                     TRISD           equ	136	;# 
   182     0089                     TRISE           equ	137	;# 
   183     008C                     PIE1            equ	140	;# 
   184     008D                     PIE2            equ	141	;# 
   185     008E                     PCON            equ	142	;# 
   186     0091                     SSPCON2         equ	145	;# 
   187     0092                     PR2             equ	146	;# 
   188     0093                     SSPADD          equ	147	;# 
   189     0094                     SSPSTAT         equ	148	;# 
   190     0098                     TXSTA           equ	152	;# 
   191     0099                     SPBRG           equ	153	;# 
   192     009C                     CMCON           equ	156	;# 
   193     009D                     CVRCON          equ	157	;# 
   194     009E                     ADRESL          equ	158	;# 
   195     009F                     ADCON1          equ	159	;# 
   196     010C                     EEDATA          equ	268	;# 
   197     010D                     EEADR           equ	269	;# 
   198     010E                     EEDATH          equ	270	;# 
   199     010F                     EEADRH          equ	271	;# 
   200     018C                     EECON1          equ	396	;# 
   201     018D                     EECON2          equ	397	;# 
   202     0000                     INDF            equ	0	;# 
   203     0001                     TMR0            equ	1	;# 
   204     0002                     PCL             equ	2	;# 
   205     0003                     STATUS          equ	3	;# 
   206     0004                     FSR             equ	4	;# 
   207     0005                     PORTA           equ	5	;# 
   208     0006                     PORTB           equ	6	;# 
   209     0007                     PORTC           equ	7	;# 
   210     0008                     PORTD           equ	8	;# 
   211     0009                     PORTE           equ	9	;# 
   212     000A                     PCLATH          equ	10	;# 
   213     000B                     INTCON          equ	11	;# 
   214     000C                     PIR1            equ	12	;# 
   215     000D                     PIR2            equ	13	;# 
   216     000E                     TMR1            equ	14	;# 
   217     000E                     TMR1L           equ	14	;# 
   218     000F                     TMR1H           equ	15	;# 
   219     0010                     T1CON           equ	16	;# 
   220     0011                     TMR2            equ	17	;# 
   221     0012                     T2CON           equ	18	;# 
   222     0013                     SSPBUF          equ	19	;# 
   223     0014                     SSPCON          equ	20	;# 
   224     0015                     CCPR1           equ	21	;# 
   225     0015                     CCPR1L          equ	21	;# 
   226     0016                     CCPR1H          equ	22	;# 
   227     0017                     CCP1CON         equ	23	;# 
   228     0018                     RCSTA           equ	24	;# 
   229     0019                     TXREG           equ	25	;# 
   230     001A                     RCREG           equ	26	;# 
   231     001B                     CCPR2           equ	27	;# 
   232     001B                     CCPR2L          equ	27	;# 
   233     001C                     CCPR2H          equ	28	;# 
   234     001D                     CCP2CON         equ	29	;# 
   235     001E                     ADRESH          equ	30	;# 
   236     001F                     ADCON0          equ	31	;# 
   237     0081                     OPTION_REG      equ	129	;# 
   238     0085                     TRISA           equ	133	;# 
   239     0086                     TRISB           equ	134	;# 
   240     0087                     TRISC           equ	135	;# 
   241     0088                     TRISD           equ	136	;# 
   242     0089                     TRISE           equ	137	;# 
   243     008C                     PIE1            equ	140	;# 
   244     008D                     PIE2            equ	141	;# 
   245     008E                     PCON            equ	142	;# 
   246     0091                     SSPCON2         equ	145	;# 
   247     0092                     PR2             equ	146	;# 
   248     0093                     SSPADD          equ	147	;# 
   249     0094                     SSPSTAT         equ	148	;# 
   250     0098                     TXSTA           equ	152	;# 
   251     0099                     SPBRG           equ	153	;# 
   252     009C                     CMCON           equ	156	;# 
   253     009D                     CVRCON          equ	157	;# 
   254     009E                     ADRESL          equ	158	;# 
   255     009F                     ADCON1          equ	159	;# 
   256     010C                     EEDATA          equ	268	;# 
   257     010D                     EEADR           equ	269	;# 
   258     010E                     EEDATH          equ	270	;# 
   259     010F                     EEADRH          equ	271	;# 
   260     018C                     EECON1          equ	396	;# 
   261     018D                     EECON2          equ	397	;# 
   262     0000                     INDF            equ	0	;# 
   263     0001                     TMR0            equ	1	;# 
   264     0002                     PCL             equ	2	;# 
   265     0003                     STATUS          equ	3	;# 
   266     0004                     FSR             equ	4	;# 
   267     0005                     PORTA           equ	5	;# 
   268     0006                     PORTB           equ	6	;# 
   269     0007                     PORTC           equ	7	;# 
   270     0008                     PORTD           equ	8	;# 
   271     0009                     PORTE           equ	9	;# 
   272     000A                     PCLATH          equ	10	;# 
   273     000B                     INTCON          equ	11	;# 
   274     000C                     PIR1            equ	12	;# 
   275     000D                     PIR2            equ	13	;# 
   276     000E                     TMR1            equ	14	;# 
   277     000E                     TMR1L           equ	14	;# 
   278     000F                     TMR1H           equ	15	;# 
   279     0010                     T1CON           equ	16	;# 
   280     0011                     TMR2            equ	17	;# 
   281     0012                     T2CON           equ	18	;# 
   282     0013                     SSPBUF          equ	19	;# 
   283     0014                     SSPCON          equ	20	;# 
   284     0015                     CCPR1           equ	21	;# 
   285     0015                     CCPR1L          equ	21	;# 
   286     0016                     CCPR1H          equ	22	;# 
   287     0017                     CCP1CON         equ	23	;# 
   288     0018                     RCSTA           equ	24	;# 
   289     0019                     TXREG           equ	25	;# 
   290     001A                     RCREG           equ	26	;# 
   291     001B                     CCPR2           equ	27	;# 
   292     001B                     CCPR2L          equ	27	;# 
   293     001C                     CCPR2H          equ	28	;# 
   294     001D                     CCP2CON         equ	29	;# 
   295     001E                     ADRESH          equ	30	;# 
   296     001F                     ADCON0          equ	31	;# 
   297     0081                     OPTION_REG      equ	129	;# 
   298     0085                     TRISA           equ	133	;# 
   299     0086                     TRISB           equ	134	;# 
   300     0087                     TRISC           equ	135	;# 
   301     0088                     TRISD           equ	136	;# 
   302     0089                     TRISE           equ	137	;# 
   303     008C                     PIE1            equ	140	;# 
   304     008D                     PIE2            equ	141	;# 
   305     008E                     PCON            equ	142	;# 
   306     0091                     SSPCON2         equ	145	;# 
   307     0092                     PR2             equ	146	;# 
   308     0093                     SSPADD          equ	147	;# 
   309     0094                     SSPSTAT         equ	148	;# 
   310     0098                     TXSTA           equ	152	;# 
   311     0099                     SPBRG           equ	153	;# 
   312     009C                     CMCON           equ	156	;# 
   313     009D                     CVRCON          equ	157	;# 
   314     009E                     ADRESL          equ	158	;# 
   315     009F                     ADCON1          equ	159	;# 
   316     010C                     EEDATA          equ	268	;# 
   317     010D                     EEADR           equ	269	;# 
   318     010E                     EEDATH          equ	270	;# 
   319     010F                     EEADRH          equ	271	;# 
   320     018C                     EECON1          equ	396	;# 
   321     018D                     EECON2          equ	397	;# 
   322     0000                     INDF            equ	0	;# 
   323     0001                     TMR0            equ	1	;# 
   324     0002                     PCL             equ	2	;# 
   325     0003                     STATUS          equ	3	;# 
   326     0004                     FSR             equ	4	;# 
   327     0005                     PORTA           equ	5	;# 
   328     0006                     PORTB           equ	6	;# 
   329     0007                     PORTC           equ	7	;# 
   330     0008                     PORTD           equ	8	;# 
   331     0009                     PORTE           equ	9	;# 
   332     000A                     PCLATH          equ	10	;# 
   333     000B                     INTCON          equ	11	;# 
   334     000C                     PIR1            equ	12	;# 
   335     000D                     PIR2            equ	13	;# 
   336     000E                     TMR1            equ	14	;# 
   337     000E                     TMR1L           equ	14	;# 
   338     000F                     TMR1H           equ	15	;# 
   339     0010                     T1CON           equ	16	;# 
   340     0011                     TMR2            equ	17	;# 
   341     0012                     T2CON           equ	18	;# 
   342     0013                     SSPBUF          equ	19	;# 
   343     0014                     SSPCON          equ	20	;# 
   344     0015                     CCPR1           equ	21	;# 
   345     0015                     CCPR1L          equ	21	;# 
   346     0016                     CCPR1H          equ	22	;# 
   347     0017                     CCP1CON         equ	23	;# 
   348     0018                     RCSTA           equ	24	;# 
   349     0019                     TXREG           equ	25	;# 
   350     001A                     RCREG           equ	26	;# 
   351     001B                     CCPR2           equ	27	;# 
   352     001B                     CCPR2L          equ	27	;# 
   353     001C                     CCPR2H          equ	28	;# 
   354     001D                     CCP2CON         equ	29	;# 
   355     001E                     ADRESH          equ	30	;# 
   356     001F                     ADCON0          equ	31	;# 
   357     0081                     OPTION_REG      equ	129	;# 
   358     0085                     TRISA           equ	133	;# 
   359     0086                     TRISB           equ	134	;# 
   360     0087                     TRISC           equ	135	;# 
   361     0088                     TRISD           equ	136	;# 
   362     0089                     TRISE           equ	137	;# 
   363     008C                     PIE1            equ	140	;# 
   364     008D                     PIE2            equ	141	;# 
   365     008E                     PCON            equ	142	;# 
   366     0091                     SSPCON2         equ	145	;# 
   367     0092                     PR2             equ	146	;# 
   368     0093                     SSPADD          equ	147	;# 
   369     0094                     SSPSTAT         equ	148	;# 
   370     0098                     TXSTA           equ	152	;# 
   371     0099                     SPBRG           equ	153	;# 
   372     009C                     CMCON           equ	156	;# 
   373     009D                     CVRCON          equ	157	;# 
   374     009E                     ADRESL          equ	158	;# 
   375     009F                     ADCON1          equ	159	;# 
   376     010C                     EEDATA          equ	268	;# 
   377     010D                     EEADR           equ	269	;# 
   378     010E                     EEDATH          equ	270	;# 
   379     010F                     EEADRH          equ	271	;# 
   380     018C                     EECON1          equ	396	;# 
   381     018D                     EECON2          equ	397	;# 
   382     0000                     INDF            equ	0	;# 
   383     0001                     TMR0            equ	1	;# 
   384     0002                     PCL             equ	2	;# 
   385     0003                     STATUS          equ	3	;# 
   386     0004                     FSR             equ	4	;# 
   387     0005                     PORTA           equ	5	;# 
   388     0006                     PORTB           equ	6	;# 
   389     0007                     PORTC           equ	7	;# 
   390     0008                     PORTD           equ	8	;# 
   391     0009                     PORTE           equ	9	;# 
   392     000A                     PCLATH          equ	10	;# 
   393     000B                     INTCON          equ	11	;# 
   394     000C                     PIR1            equ	12	;# 
   395     000D                     PIR2            equ	13	;# 
   396     000E                     TMR1            equ	14	;# 
   397     000E                     TMR1L           equ	14	;# 
   398     000F                     TMR1H           equ	15	;# 
   399     0010                     T1CON           equ	16	;# 
   400     0011                     TMR2            equ	17	;# 
   401     0012                     T2CON           equ	18	;# 
   402     0013                     SSPBUF          equ	19	;# 
   403     0014                     SSPCON          equ	20	;# 
   404     0015                     CCPR1           equ	21	;# 
   405     0015                     CCPR1L          equ	21	;# 
   406     0016                     CCPR1H          equ	22	;# 
   407     0017                     CCP1CON         equ	23	;# 
   408     0018                     RCSTA           equ	24	;# 
   409     0019                     TXREG           equ	25	;# 
   410     001A                     RCREG           equ	26	;# 
   411     001B                     CCPR2           equ	27	;# 
   412     001B                     CCPR2L          equ	27	;# 
   413     001C                     CCPR2H          equ	28	;# 
   414     001D                     CCP2CON         equ	29	;# 
   415     001E                     ADRESH          equ	30	;# 
   416     001F                     ADCON0          equ	31	;# 
   417     0081                     OPTION_REG      equ	129	;# 
   418     0085                     TRISA           equ	133	;# 
   419     0086                     TRISB           equ	134	;# 
   420     0087                     TRISC           equ	135	;# 
   421     0088                     TRISD           equ	136	;# 
   422     0089                     TRISE           equ	137	;# 
   423     008C                     PIE1            equ	140	;# 
   424     008D                     PIE2            equ	141	;# 
   425     008E                     PCON            equ	142	;# 
   426     0091                     SSPCON2         equ	145	;# 
   427     0092                     PR2             equ	146	;# 
   428     0093                     SSPADD          equ	147	;# 
   429     0094                     SSPSTAT         equ	148	;# 
   430     0098                     TXSTA           equ	152	;# 
   431     0099                     SPBRG           equ	153	;# 
   432     009C                     CMCON           equ	156	;# 
   433     009D                     CVRCON          equ	157	;# 
   434     009E                     ADRESL          equ	158	;# 
   435     009F                     ADCON1          equ	159	;# 
   436     010C                     EEDATA          equ	268	;# 
   437     010D                     EEADR           equ	269	;# 
   438     010E                     EEDATH          equ	270	;# 
   439     010F                     EEADRH          equ	271	;# 
   440     018C                     EECON1          equ	396	;# 
   441     018D                     EECON2          equ	397	;# 
   442     0000                     INDF            equ	0	;# 
   443     0001                     TMR0            equ	1	;# 
   444     0002                     PCL             equ	2	;# 
   445     0003                     STATUS          equ	3	;# 
   446     0004                     FSR             equ	4	;# 
   447     0005                     PORTA           equ	5	;# 
   448     0006                     PORTB           equ	6	;# 
   449     0007                     PORTC           equ	7	;# 
   450     0008                     PORTD           equ	8	;# 
   451     0009                     PORTE           equ	9	;# 
   452     000A                     PCLATH          equ	10	;# 
   453     000B                     INTCON          equ	11	;# 
   454     000C                     PIR1            equ	12	;# 
   455     000D                     PIR2            equ	13	;# 
   456     000E                     TMR1            equ	14	;# 
   457     000E                     TMR1L           equ	14	;# 
   458     000F                     TMR1H           equ	15	;# 
   459     0010                     T1CON           equ	16	;# 
   460     0011                     TMR2            equ	17	;# 
   461     0012                     T2CON           equ	18	;# 
   462     0013                     SSPBUF          equ	19	;# 
   463     0014                     SSPCON          equ	20	;# 
   464     0015                     CCPR1           equ	21	;# 
   465     0015                     CCPR1L          equ	21	;# 
   466     0016                     CCPR1H          equ	22	;# 
   467     0017                     CCP1CON         equ	23	;# 
   468     0018                     RCSTA           equ	24	;# 
   469     0019                     TXREG           equ	25	;# 
   470     001A                     RCREG           equ	26	;# 
   471     001B                     CCPR2           equ	27	;# 
   472     001B                     CCPR2L          equ	27	;# 
   473     001C                     CCPR2H          equ	28	;# 
   474     001D                     CCP2CON         equ	29	;# 
   475     001E                     ADRESH          equ	30	;# 
   476     001F                     ADCON0          equ	31	;# 
   477     0081                     OPTION_REG      equ	129	;# 
   478     0085                     TRISA           equ	133	;# 
   479     0086                     TRISB           equ	134	;# 
   480     0087                     TRISC           equ	135	;# 
   481     0088                     TRISD           equ	136	;# 
   482     0089                     TRISE           equ	137	;# 
   483     008C                     PIE1            equ	140	;# 
   484     008D                     PIE2            equ	141	;# 
   485     008E                     PCON            equ	142	;# 
   486     0091                     SSPCON2         equ	145	;# 
   487     0092                     PR2             equ	146	;# 
   488     0093                     SSPADD          equ	147	;# 
   489     0094                     SSPSTAT         equ	148	;# 
   490     0098                     TXSTA           equ	152	;# 
   491     0099                     SPBRG           equ	153	;# 
   492     009C                     CMCON           equ	156	;# 
   493     009D                     CVRCON          equ	157	;# 
   494     009E                     ADRESL          equ	158	;# 
   495     009F                     ADCON1          equ	159	;# 
   496     010C                     EEDATA          equ	268	;# 
   497     010D                     EEADR           equ	269	;# 
   498     010E                     EEDATH          equ	270	;# 
   499     010F                     EEADRH          equ	271	;# 
   500     018C                     EECON1          equ	396	;# 
   501     018D                     EECON2          equ	397	;# 
   502                           
   503                           	psect	idataCOMMON
   504     07F6                     __pidataCOMMON:
   505                           
   506                           ;initializer for read_matrix_keypad@once
   507     07F6  3401               	retlw	1
   508                           
   509                           	psect	idataBANK0
   510     07F7                     __pidataBANK0:
   511                           
   512                           ;initializer for _state
   513     07F7  3402               	retlw	2
   514     0008                     _PORTD          set	8
   515     0049                     _RE1            set	73
   516     004A                     _RE2            set	74
   517     0032                     _RB2            set	50
   518     0031                     _RB1            set	49
   519     0030                     _RB0            set	48
   520     0040                     _RD0            set	64
   521     0041                     _RD1            set	65
   522     0042                     _RD2            set	66
   523     0043                     _RD3            set	67
   524     0092                     _TMR2ON         set	146
   525     0091                     _T2CKPS1        set	145
   526     0090                     _T2CKPS0        set	144
   527     005F                     _GIE            set	95
   528     005E                     _PEIE           set	94
   529     0039                     _RC1            set	57
   530     003A                     _RC2            set	58
   531     0061                     _TMR2IF         set	97
   532     0088                     _TRISD          set	136
   533     0086                     _TRISB          set	134
   534     0092                     _PR2            set	146
   535     0449                     _TRISE1         set	1097
   536     044A                     _TRISE2         set	1098
   537     040F                     _nRBPU          set	1039
   538     0461                     _TMR2IE         set	1121
   539     0439                     _TRISC1         set	1081
   540     043A                     _TRISC2         set	1082
   541                           
   542                           	psect	strings
   543     0200                     __pstrings:
   544     0200                     stringtab:
   545     0200                     __stringtab:
   546                           
   547                           ;	String table - string pointers are 1 byte each
   548     0200  1BFF               	btfsc	btemp+1,7
   549     0201  2A0A               	ljmp	stringcode
   550     0202  1383               	bcf	3,7
   551     0203  187F               	btfsc	btemp+1,0
   552     0204  1783               	bsf	3,7
   553     0205  0800               	movf	0,w
   554     0206  0A84               	incf	4,f
   555     0207  1903               	skipnz
   556     0208  0AFF               	incf	btemp+1,f
   557     0209  0008               	return
   558     020A                     stringcode:
   559     020A                     stringdir:
   560     020A  3002               	movlw	high stringdir
   561     020B  008A               	movwf	10
   562     020C  0804               	movf	4,w
   563     020D  0A84               	incf	4,f
   564     020E  0782               	addwf	2,f
   565     020F                     __stringbase:
   566     020F  3400               	retlw	0
   567     0210                     __end_of__stringtab:
   568     0210                     STR_13:
   569     0210  3453               	retlw	83	;'S'
   570     0211  3445               	retlw	69	;'E'
   571     0212  3454               	retlw	84	;'T'
   572     0213  3420               	retlw	32	;' '
   573     0214  3454               	retlw	84	;'T'
   574     0215  3449               	retlw	73	;'I'
   575     0216  344D               	retlw	77	;'M'
   576     0217  3445               	retlw	69	;'E'
   577     0218  3420               	retlw	32	;' '
   578     0219  3428               	retlw	40	;'('
   579     021A  344D               	retlw	77	;'M'
   580     021B  344D               	retlw	77	;'M'
   581     021C  343A               	retlw	58	;':'
   582     021D  3453               	retlw	83	;'S'
   583     021E  3453               	retlw	83	;'S'
   584     021F  3429               	retlw	41	;')'
   585     0220  3400               	retlw	0
   586     0221                     STR_15:
   587     0221  342A               	retlw	42	;'*'
   588     0222  343A               	retlw	58	;':'
   589     0223  3443               	retlw	67	;'C'
   590     0224  344C               	retlw	76	;'L'
   591     0225  3445               	retlw	69	;'E'
   592     0226  3441               	retlw	65	;'A'
   593     0227  3452               	retlw	82	;'R'
   594     0228  3420               	retlw	32	;' '
   595     0229  3420               	retlw	32	;' '
   596     022A  3423               	retlw	35	;'#'
   597     022B  343A               	retlw	58	;':'
   598     022C  3445               	retlw	69	;'E'
   599     022D  344E               	retlw	78	;'N'
   600     022E  3454               	retlw	84	;'T'
   601     022F  3445               	retlw	69	;'E'
   602     0230  3452               	retlw	82	;'R'
   603     0231  3400               	retlw	0
   604     0232                     STR_17:
   605     0232  3434               	retlw	52	;'4'
   606     0233  342E               	retlw	46	;'.'
   607     0234  3453               	retlw	83	;'S'
   608     0235  3454               	retlw	84	;'T'
   609     0236  3441               	retlw	65	;'A'
   610     0237  3452               	retlw	82	;'R'
   611     0238  3454               	retlw	84	;'T'
   612     0239  342F               	retlw	47	;'/'
   613     023A  3452               	retlw	82	;'R'
   614     023B  3445               	retlw	69	;'E'
   615     023C  3453               	retlw	83	;'S'
   616     023D  3455               	retlw	85	;'U'
   617     023E  344D               	retlw	77	;'M'
   618     023F  3445               	retlw	69	;'E'
   619     0240  3400               	retlw	0
   620     0241                     STR_8:
   621     0241  344D               	retlw	77	;'M'
   622     0242  3469               	retlw	105	;'i'
   623     0243  3463               	retlw	99	;'c'
   624     0244  3472               	retlw	114	;'r'
   625     0245  346F               	retlw	111	;'o'
   626     0246  3477               	retlw	119	;'w'
   627     0247  3461               	retlw	97	;'a'
   628     0248  3476               	retlw	118	;'v'
   629     0249  3465               	retlw	101	;'e'
   630     024A  3420               	retlw	32	;' '
   631     024B  344F               	retlw	79	;'O'
   632     024C  3476               	retlw	118	;'v'
   633     024D  3465               	retlw	101	;'e'
   634     024E  346E               	retlw	110	;'n'
   635     024F  3400               	retlw	0
   636     0250                     STR_4:
   637     0250  3420               	retlw	32	;' '
   638     0251  3453               	retlw	83	;'S'
   639     0252  3445               	retlw	69	;'E'
   640     0253  3454               	retlw	84	;'T'
   641     0254  3420               	retlw	32	;' '
   642     0255  3454               	retlw	84	;'T'
   643     0256  3445               	retlw	69	;'E'
   644     0257  344D               	retlw	77	;'M'
   645     0258  3450               	retlw	80	;'P'
   646     0259  3420               	retlw	32	;' '
   647     025A  3428               	retlw	40	;'('
   648     025B  3443               	retlw	67	;'C'
   649     025C  3429               	retlw	41	;')'
   650     025D  3420               	retlw	32	;' '
   651     025E  3400               	retlw	0
   652     025F                     STR_2:
   653     025F  3420               	retlw	32	;' '
   654     0260  3470               	retlw	112	;'p'
   655     0261  346F               	retlw	111	;'o'
   656     0262  3477               	retlw	119	;'w'
   657     0263  3465               	retlw	101	;'e'
   658     0264  3472               	retlw	114	;'r'
   659     0265  3420               	retlw	32	;' '
   660     0266  343D               	retlw	61	;'='
   661     0267  3420               	retlw	32	;' '
   662     0268  3439               	retlw	57	;'9'
   663     0269  3430               	retlw	48	;'0'
   664     026A  3430               	retlw	48	;'0'
   665     026B  3457               	retlw	87	;'W'
   666     026C  3420               	retlw	32	;' '
   667     026D  3400               	retlw	0
   668     026E                     STR_11:
   669     026E  3433               	retlw	51	;'3'
   670     026F  342E               	retlw	46	;'.'
   671     0270  3420               	retlw	32	;' '
   672     0271  3443               	retlw	67	;'C'
   673     0272  344F               	retlw	79	;'O'
   674     0273  344E               	retlw	78	;'N'
   675     0274  3456               	retlw	86	;'V'
   676     0275  3445               	retlw	69	;'E'
   677     0276  3443               	retlw	67	;'C'
   678     0277  3454               	retlw	84	;'T'
   679     0278  3449               	retlw	73	;'I'
   680     0279  344F               	retlw	79	;'O'
   681     027A  344E               	retlw	78	;'N'
   682     027B  3400               	retlw	0
   683     027C                     STR_6:
   684     027C  3420               	retlw	32	;' '
   685     027D  3420               	retlw	32	;' '
   686     027E  3454               	retlw	84	;'T'
   687     027F  3449               	retlw	73	;'I'
   688     0280  344D               	retlw	77	;'M'
   689     0281  3445               	retlw	69	;'E'
   690     0282  3420               	retlw	32	;' '
   691     0283  3455               	retlw	85	;'U'
   692     0284  3450               	retlw	80	;'P'
   693     0285  3421               	retlw	33	;'!'
   694     0286  3421               	retlw	33	;'!'
   695     0287  3420               	retlw	32	;' '
   696     0288  3420               	retlw	32	;' '
   697     0289  3400               	retlw	0
   698     028A                     STR_5:
   699     028A  3420               	retlw	32	;' '
   700     028B  3454               	retlw	84	;'T'
   701     028C  3445               	retlw	69	;'E'
   702     028D  344D               	retlw	77	;'M'
   703     028E  3450               	retlw	80	;'P'
   704     028F  343A               	retlw	58	;':'
   705     0290  3420               	retlw	32	;' '
   706     0291  3430               	retlw	48	;'0'
   707     0292  3430               	retlw	48	;'0'
   708     0293  3430               	retlw	48	;'0'
   709     0294  3443               	retlw	67	;'C'
   710     0295  3420               	retlw	32	;' '
   711     0296  3400               	retlw	0
   712     0297                     STR_3:
   713     0297  3420               	retlw	32	;' '
   714     0298  3447               	retlw	71	;'G'
   715     0299  3452               	retlw	82	;'R'
   716     029A  3449               	retlw	73	;'I'
   717     029B  344C               	retlw	76	;'L'
   718     029C  344C               	retlw	76	;'L'
   719     029D  3420               	retlw	32	;' '
   720     029E  344D               	retlw	77	;'M'
   721     029F  344F               	retlw	79	;'O'
   722     02A0  3444               	retlw	68	;'D'
   723     02A1  3445               	retlw	69	;'E'
   724     02A2  3420               	retlw	32	;' '
   725     02A3  3400               	retlw	0
   726     02A4                     STR_14:
   727     02A4  3454               	retlw	84	;'T'
   728     02A5  3449               	retlw	73	;'I'
   729     02A6  344D               	retlw	77	;'M'
   730     02A7  3445               	retlw	69	;'E'
   731     02A8  343A               	retlw	58	;':'
   732     02A9  3420               	retlw	32	;' '
   733     02AA  3430               	retlw	48	;'0'
   734     02AB  3430               	retlw	48	;'0'
   735     02AC  343A               	retlw	58	;':'
   736     02AD  3430               	retlw	48	;'0'
   737     02AE  3430               	retlw	48	;'0'
   738     02AF  3400               	retlw	0
   739     02B0                     STR_7:
   740     02B0  3450               	retlw	80	;'P'
   741     02B1  346F               	retlw	111	;'o'
   742     02B2  3477               	retlw	119	;'w'
   743     02B3  3465               	retlw	101	;'e'
   744     02B4  3472               	retlw	114	;'r'
   745     02B5  3469               	retlw	105	;'i'
   746     02B6  346E               	retlw	110	;'n'
   747     02B7  3467               	retlw	103	;'g'
   748     02B8  3420               	retlw	32	;' '
   749     02B9  344F               	retlw	79	;'O'
   750     02BA  344E               	retlw	78	;'N'
   751     02BB  3400               	retlw	0
   752     02BC                     STR_1:
   753     02BC  3420               	retlw	32	;' '
   754     02BD  3453               	retlw	83	;'S'
   755     02BE  3445               	retlw	69	;'E'
   756     02BF  3454               	retlw	84	;'T'
   757     02C0  3420               	retlw	32	;' '
   758     02C1  3450               	retlw	80	;'P'
   759     02C2  344F               	retlw	79	;'O'
   760     02C3  3457               	retlw	87	;'W'
   761     02C4  3445               	retlw	69	;'E'
   762     02C5  3452               	retlw	82	;'R'
   763     02C6  3420               	retlw	32	;' '
   764     02C7  3400               	retlw	0
   765     02C8                     STR_10:
   766     02C8  3432               	retlw	50	;'2'
   767     02C9  342E               	retlw	46	;'.'
   768     02CA  3420               	retlw	32	;' '
   769     02CB  3447               	retlw	71	;'G'
   770     02CC  3452               	retlw	82	;'R'
   771     02CD  3449               	retlw	73	;'I'
   772     02CE  344C               	retlw	76	;'L'
   773     02CF  344C               	retlw	76	;'L'
   774     02D0  3400               	retlw	0
   775     02D1                     STR_9:
   776     02D1  3431               	retlw	49	;'1'
   777     02D2  342E               	retlw	46	;'.'
   778     02D3  3420               	retlw	32	;' '
   779     02D4  344D               	retlw	77	;'M'
   780     02D5  3449               	retlw	73	;'I'
   781     02D6  3443               	retlw	67	;'C'
   782     02D7  3452               	retlw	82	;'R'
   783     02D8  344F               	retlw	79	;'O'
   784     02D9  3400               	retlw	0
   785     02DA                     STR_12:
   786     02DA  3434               	retlw	52	;'4'
   787     02DB  342E               	retlw	46	;'.'
   788     02DC  3420               	retlw	32	;' '
   789     02DD  3453               	retlw	83	;'S'
   790     02DE  3454               	retlw	84	;'T'
   791     02DF  3441               	retlw	65	;'A'
   792     02E0  3452               	retlw	82	;'R'
   793     02E1  3454               	retlw	84	;'T'
   794     02E2  3400               	retlw	0
   795     02E3                     STR_16:
   796     02E3  3454               	retlw	84	;'T'
   797     02E4  3449               	retlw	73	;'I'
   798     02E5  344D               	retlw	77	;'M'
   799     02E6  3445               	retlw	69	;'E'
   800     02E7  3420               	retlw	32	;' '
   801     02E8  343D               	retlw	61	;'='
   802     02E9  3420               	retlw	32	;' '
   803     02EA  3400               	retlw	0
   804     02EB                     STR_18:
   805     02EB  3435               	retlw	53	;'5'
   806     02EC  342E               	retlw	46	;'.'
   807     02ED  3450               	retlw	80	;'P'
   808     02EE  3441               	retlw	65	;'A'
   809     02EF  3455               	retlw	85	;'U'
   810     02F0  3453               	retlw	83	;'S'
   811     02F1  3445               	retlw	69	;'E'
   812     02F2  3400               	retlw	0
   813     02F3                     STR_19:
   814     02F3  3436               	retlw	54	;'6'
   815     02F4  342E               	retlw	46	;'.'
   816     02F5  3453               	retlw	83	;'S'
   817     02F6  3454               	retlw	84	;'T'
   818     02F7  344F               	retlw	79	;'O'
   819     02F8  3450               	retlw	80	;'P'
   820     02F9  3400               	retlw	0
   821                           
   822                           	psect	cinit
   823     000F                     start_initialization:	
   824                           ; #config settings
   825                           
   826     000F                     __initialization:
   827                           
   828                           ; Initialize objects allocated to BANK0
   829     000F  120A  118A  27F7  120A  118A  	fcall	__pidataBANK0	;fetch initializer
   830     0014  00C0               	movwf	__pdataBANK0& (0+127)
   831                           
   832                           ; Initialize objects allocated to COMMON
   833     0015  120A  118A  27F6  120A  118A  	fcall	__pidataCOMMON	;fetch initializer
   834     001A  00FB               	movwf	__pdataCOMMON& (0+127)
   835                           
   836                           ; Clear objects allocated to BANK0
   837     001B  01B4               	clrf	__pbssBANK0& (0+127)
   838     001C  01B5               	clrf	(__pbssBANK0+1)& (0+127)
   839     001D  01B6               	clrf	(__pbssBANK0+2)& (0+127)
   840     001E  01B7               	clrf	(__pbssBANK0+3)& (0+127)
   841     001F  01B8               	clrf	(__pbssBANK0+4)& (0+127)
   842     0020  01B9               	clrf	(__pbssBANK0+5)& (0+127)
   843     0021  01BA               	clrf	(__pbssBANK0+6)& (0+127)
   844     0022  01BB               	clrf	(__pbssBANK0+7)& (0+127)
   845     0023  01BC               	clrf	(__pbssBANK0+8)& (0+127)
   846     0024  01BD               	clrf	(__pbssBANK0+9)& (0+127)
   847     0025  01BE               	clrf	(__pbssBANK0+10)& (0+127)
   848     0026  01BF               	clrf	(__pbssBANK0+11)& (0+127)
   849                           
   850                           ; Clear objects allocated to COMMON
   851     0027  01F9               	clrf	__pbssCOMMON& (0+127)
   852     0028  01FA               	clrf	(__pbssCOMMON+1)& (0+127)
   853     0029                     end_of_initialization:	
   854                           ;End of C runtime variable initialization code
   855                           
   856     0029                     __end_of__initialization:
   857     0029  0183               	clrf	3
   858     002A  120A  118A  282D   	ljmp	_main	;jump to C main() function
   859                           
   860                           	psect	bssCOMMON
   861     0079                     __pbssCOMMON:
   862     0079                     isr@count:
   863     0079                     	ds	2
   864                           
   865                           	psect	dataCOMMON
   866     007B                     __pdataCOMMON:
   867     007B                     read_matrix_keypad@once:
   868     007B                     	ds	1
   869                           
   870                           	psect	bssBANK0
   871     0034                     __pbssBANK0:
   872     0034                     set_temp@pos:
   873     0034                     	ds	2
   874     0036                     set_time@pos:
   875     0036                     	ds	2
   876     0038                     _run_timer:
   877     0038                     	ds	2
   878     003A                     _temp:
   879     003A                     	ds	2
   880     003C                     _min:
   881     003C                     	ds	2
   882     003E                     _sec:
   883     003E                     	ds	2
   884                           
   885                           	psect	dataBANK0
   886     0040                     __pdataBANK0:
   887     0040                     _state:
   888     0040                     	ds	1
   889                           
   890                           	psect	cstackCOMMON
   891     0070                     __pcstackCOMMON:
   892     0070                     ?_init_clcd:
   893     0070                     ?_init_matrix_keypad:	
   894                           ; 1 bytes @ 0x0
   895                           
   896     0070                     ?_init_timer2:	
   897                           ; 1 bytes @ 0x0
   898                           
   899     0070                     ?_power_on_screen:	
   900                           ; 1 bytes @ 0x0
   901                           
   902     0070                     ?_clear_screen:	
   903                           ; 1 bytes @ 0x0
   904                           
   905     0070                     ?_read_matrix_keypad:	
   906                           ; 1 bytes @ 0x0
   907                           
   908     0070                     ?_display_main_menu:	
   909                           ; 1 bytes @ 0x0
   910                           
   911     0070                     ?_display_time_screen:	
   912                           ; 1 bytes @ 0x0
   913                           
   914     0070                     ?_isr:	
   915                           ; 1 bytes @ 0x0
   916                           
   917     0070                     ?_init_config:	
   918                           ; 1 bytes @ 0x0
   919                           
   920     0070                     ?_main:	
   921                           ; 1 bytes @ 0x0
   922                           
   923     0070                     ?_scan_keypad:	
   924                           ; 1 bytes @ 0x0
   925                           
   926     0070                     ?_init_display_controller:	
   927                           ; 1 bytes @ 0x0
   928                           
   929     0070                     ??_isr:	
   930                           ; 1 bytes @ 0x0
   931                           
   932                           
   933                           ; 1 bytes @ 0x0
   934     0070                     	ds	2
   935     0072                     ?_clcd_write:
   936     0072                     ?___wmul:	
   937                           ; 1 bytes @ 0x2
   938                           
   939     0072                     ?___lwdiv:	
   940                           ; 2 bytes @ 0x2
   941                           
   942     0072                     clcd_write@mode:	
   943                           ; 2 bytes @ 0x2
   944                           
   945     0072                     scan_keypad@i:	
   946                           ; 1 bytes @ 0x2
   947                           
   948     0072                     ___wmul@multiplier:	
   949                           ; 2 bytes @ 0x2
   950                           
   951     0072                     ___lwdiv@divisor:	
   952                           ; 2 bytes @ 0x2
   953                           
   954     0072                     ??_init_matrix_keypad:	
   955                           ; 2 bytes @ 0x2
   956                           
   957     0072                     ??_init_timer2:	
   958                           ; 1 bytes @ 0x2
   959                           
   960     0072                     ??_scan_keypad:	
   961                           ; 1 bytes @ 0x2
   962                           
   963                           
   964                           ; 1 bytes @ 0x2
   965     0072                     	ds	1
   966     0073                     ??_clcd_write:
   967                           
   968                           ; 1 bytes @ 0x3
   969     0073                     	ds	1
   970     0074                     read_matrix_keypad@mode:
   971     0074                     ___wmul@multiplicand:	
   972                           ; 1 bytes @ 0x4
   973                           
   974     0074                     ___lwdiv@dividend:	
   975                           ; 2 bytes @ 0x4
   976                           
   977     0074                     ??_read_matrix_keypad:	
   978                           ; 2 bytes @ 0x4
   979                           
   980                           
   981                           ; 1 bytes @ 0x4
   982     0074                     	ds	1
   983     0075                     read_matrix_keypad@key:
   984     0075                     clcd_write@byte:	
   985                           ; 1 bytes @ 0x5
   986                           
   987                           
   988                           ; 1 bytes @ 0x5
   989     0075                     	ds	1
   990     0076                     ?_clcd_putch:
   991     0076                     clcd_putch@addr:	
   992                           ; 1 bytes @ 0x6
   993                           
   994     0076                     ___lwdiv@counter:	
   995                           ; 1 bytes @ 0x6
   996                           
   997     0076                     ___wmul@product:	
   998                           ; 1 bytes @ 0x6
   999                           
  1000     0076                     ??_clear_screen:	
  1001                           ; 2 bytes @ 0x6
  1002                           
  1003     0076                     ??_display_main_menu:	
  1004                           ; 1 bytes @ 0x6
  1005                           
  1006     0076                     ??_clcd_print:	
  1007                           ; 1 bytes @ 0x6
  1008                           
  1009     0076                     ??_display_time_screen:	
  1010                           ; 1 bytes @ 0x6
  1011                           
  1012     0076                     ??_init_display_controller:	
  1013                           ; 1 bytes @ 0x6
  1014                           
  1015     0076                     ??___wmul:	
  1016                           ; 1 bytes @ 0x6
  1017                           
  1018     0076                     ??___lwdiv:	
  1019                           ; 1 bytes @ 0x6
  1020                           
  1021                           
  1022                           ; 1 bytes @ 0x6
  1023     0076                     	ds	1
  1024     0077                     clcd_putch@data:
  1025     0077                     ___lwdiv@quotient:	
  1026                           ; 1 bytes @ 0x7
  1027                           
  1028     0077                     ??_clcd_putch:	
  1029                           ; 2 bytes @ 0x7
  1030                           
  1031                           
  1032                           ; 1 bytes @ 0x7
  1033     0077                     	ds	1
  1034     0078                     ??_init_clcd:
  1035     0078                     ??_init_config:	
  1036                           ; 1 bytes @ 0x8
  1037                           
  1038                           
  1039                           ; 1 bytes @ 0x8
  1040     0078                     	ds	1
  1041     0079                     ??_operation_mode:
  1042     0079                     ??___lwmod:	
  1043                           ; 1 bytes @ 0x9
  1044                           
  1045                           
  1046                           	psect	cstackBANK0
  1047     0020                     __pcstackBANK0:	
  1048                           ; 1 bytes @ 0x9
  1049                           
  1050     0020                     ?_clcd_print:
  1051     0020                     ?___lwmod:	
  1052                           ; 1 bytes @ 0x0
  1053                           
  1054     0020                     clcd_print@str:	
  1055                           ; 2 bytes @ 0x0
  1056                           
  1057     0020                     ___lwmod@divisor:	
  1058                           ; 2 bytes @ 0x0
  1059                           
  1060                           
  1061                           ; 2 bytes @ 0x0
  1062     0020                     	ds	2
  1063     0022                     clcd_print@addr:
  1064     0022                     ___lwmod@dividend:	
  1065                           ; 1 bytes @ 0x2
  1066                           
  1067                           
  1068                           ; 2 bytes @ 0x2
  1069     0022                     	ds	1
  1070     0023                     ??_power_on_screen:
  1071                           
  1072                           ; 1 bytes @ 0x3
  1073     0023                     	ds	1
  1074     0024                     ___lwmod@counter:
  1075                           
  1076                           ; 1 bytes @ 0x4
  1077     0024                     	ds	1
  1078     0025                     ?_set_time:
  1079     0025                     ?_set_temp:	
  1080                           ; 1 bytes @ 0x5
  1081                           
  1082     0025                     ?_operation_mode:	
  1083                           ; 1 bytes @ 0x5
  1084                           
  1085     0025                     set_time@min:	
  1086                           ; 1 bytes @ 0x5
  1087                           
  1088     0025                     set_temp@temp:	
  1089                           ; 1 bytes @ 0x5
  1090                           
  1091     0025                     operation_mode@min:	
  1092                           ; 1 bytes @ 0x5
  1093                           
  1094                           
  1095                           ; 2 bytes @ 0x5
  1096     0025                     	ds	1
  1097     0026                     power_on_screen@i:
  1098     0026                     set_time@sec:	
  1099                           ; 1 bytes @ 0x6
  1100                           
  1101     0026                     ??_set_temp:	
  1102                           ; 1 bytes @ 0x6
  1103                           
  1104                           
  1105                           ; 1 bytes @ 0x6
  1106     0026                     	ds	1
  1107     0027                     power_on_screen@i_147:
  1108     0027                     operation_mode@sec:	
  1109                           ; 1 bytes @ 0x7
  1110                           
  1111     0027                     ??_set_time:	
  1112                           ; 2 bytes @ 0x7
  1113                           
  1114                           
  1115                           ; 1 bytes @ 0x7
  1116     0027                     	ds	1
  1117     0028                     set_temp@temp_str:
  1118                           
  1119                           ; 5 bytes @ 0x8
  1120     0028                     	ds	1
  1121     0029                     set_time@time_str:
  1122     0029                     operation_mode@time_str:	
  1123                           ; 6 bytes @ 0x9
  1124                           
  1125                           
  1126                           ; 6 bytes @ 0x9
  1127     0029                     	ds	4
  1128     002D                     set_temp@key:
  1129                           
  1130                           ; 1 bytes @ 0xD
  1131     002D                     	ds	2
  1132     002F                     set_time@key:
  1133                           
  1134                           ; 1 bytes @ 0xF
  1135     002F                     	ds	1
  1136     0030                     ??_main:
  1137                           
  1138                           ; 1 bytes @ 0x10
  1139     0030                     	ds	3
  1140     0033                     main@key:
  1141                           
  1142                           ; 1 bytes @ 0x13
  1143     0033                     	ds	1
  1144                           
  1145                           	psect	maintext
  1146     002D                     __pmaintext:	
  1147 ;;
  1148 ;;Main: autosize = 0, tempsize = 3, incstack = 0, save=0
  1149 ;;
  1150 ;; *************** function _main *****************
  1151 ;; Defined at:
  1152 ;;		line 24 in file "main.c"
  1153 ;; Parameters:    Size  Location     Type
  1154 ;;		None
  1155 ;; Auto vars:     Size  Location     Type
  1156 ;;  key             1   19[BANK0 ] unsigned char 
  1157 ;; Return value:  Size  Location     Type
  1158 ;;                  1    wreg      void 
  1159 ;; Registers used:
  1160 ;;		wreg, fsr0l, fsr0h, status,2, status,0, pclath, btemp1, cstack
  1161 ;; Tracked objects:
  1162 ;;		On entry : B00/0
  1163 ;;		On exit  : 0/0
  1164 ;;		Unchanged: 0/0
  1165 ;; Data sizes:     COMMON   BANK0   BANK1   BANK3   BANK2
  1166 ;;      Params:         0       0       0       0       0
  1167 ;;      Locals:         0       1       0       0       0
  1168 ;;      Temps:          0       3       0       0       0
  1169 ;;      Totals:         0       4       0       0       0
  1170 ;;Total ram usage:        4 bytes
  1171 ;; Hardware stack levels required when called: 5
  1172 ;; This function calls:
  1173 ;;		_clcd_print
  1174 ;;		_clear_screen
  1175 ;;		_display_main_menu
  1176 ;;		_display_time_screen
  1177 ;;		_init_config
  1178 ;;		_operation_mode
  1179 ;;		_power_on_screen
  1180 ;;		_read_matrix_keypad
  1181 ;;		_set_temp
  1182 ;;		_set_time
  1183 ;; This function is called by:
  1184 ;;		Startup code after reset
  1185 ;; This function uses a non-reentrant model
  1186 ;;
  1187                           
  1188     002D                     _main:	
  1189                           ;psect for function _main
  1190                           
  1191     002D                     l2071:	
  1192                           ;incstack = 0
  1193                           ; Regs used in _main: [wreg-fsr0h+status,2+status,0+pclath+btemp1+cstack]
  1194                           
  1195                           
  1196                           ;main.c: 25: ;main.c: 27:         key = read_matrix_keypad(1);
  1197     002D  120A  158A  2772  120A  118A  	fcall	_init_config
  1198     0032                     l2073:
  1199                           
  1200                           ;main.c: 28: 
  1201     0032  120A  118A  25F5  120A  118A  	fcall	_power_on_screen
  1202     0037                     l2075:
  1203                           
  1204                           ;main.c: 29:         switch (state) {
  1205     0037  120A  158A  2761  120A  118A  	fcall	_clear_screen
  1206     003C                     l2077:
  1207                           
  1208                           ;main.c: 32:                 if (key == 1) {
  1209     003C  3001               	movlw	1
  1210     003D  120A  158A  2790  120A  118A  	fcall	_read_matrix_keypad
  1211     0042  1283               	bcf	3,5	;RP0=0, select bank0
  1212     0043  1303               	bcf	3,6	;RP1=0, select bank0
  1213     0044  00B3               	movwf	main@key
  1214                           
  1215                           ;main.c: 34:                     clear_screen();
  1216     0045  29AA               	goto	l2215
  1217     0046                     l2079:
  1218                           
  1219                           ;main.c: 36:                     clcd_print(" power = 900W ", ((unsigned char)(0xC0 + 0)
      +                          ));
  1220     0046  120A  118A  27C1  120A  118A  	fcall	_display_main_menu
  1221     004B                     l2081:
  1222                           
  1223                           ;main.c: 37:                     _delay((unsigned long)((1500)*(20000000/4000.0)));
  1224     004B  1283               	bcf	3,5	;RP0=0, select bank0
  1225     004C  1303               	bcf	3,6	;RP1=0, select bank0
  1226     004D  0333               	decf	main@key,w
  1227     004E  1D03               	btfss	3,2
  1228     004F  2851               	goto	u1661
  1229     0050  2852               	goto	u1660
  1230     0051                     u1661:
  1231     0051  288D               	goto	l2097
  1232     0052                     u1660:
  1233     0052                     l2083:
  1234                           
  1235                           ;main.c: 38:                     clear_screen();
  1236     0052  3003               	movlw	3
  1237     0053  00C0               	movwf	_state
  1238     0054                     l2085:
  1239                           
  1240                           ;main.c: 39:                     display_time_screen();
  1241     0054  120A  158A  2761  120A  118A  	fcall	_clear_screen
  1242     0059                     l2087:
  1243                           
  1244                           ;main.c: 40:                 } else if (key == 2) {
  1245     0059  30AD               	movlw	(low ((STR_1-__stringbase)| (0+32768)))& (0+255)
  1246     005A  1283               	bcf	3,5	;RP0=0, select bank0
  1247     005B  1303               	bcf	3,6	;RP1=0, select bank0
  1248     005C  00A0               	movwf	clcd_print@str
  1249     005D  3080               	movlw	128
  1250     005E  00A1               	movwf	clcd_print@str+1
  1251     005F  3080               	movlw	128
  1252     0060  00A2               	movwf	clcd_print@addr
  1253     0061  120A  118A  21C1  120A  118A  	fcall	_clcd_print
  1254     0066                     l2089:
  1255                           
  1256                           ;main.c: 41:                     state = 0x04;
  1257     0066  3050               	movlw	(low ((STR_2-__stringbase)| (0+32768)))& (0+255)
  1258     0067  1283               	bcf	3,5	;RP0=0, select bank0
  1259     0068  1303               	bcf	3,6	;RP1=0, select bank0
  1260     0069  00A0               	movwf	clcd_print@str
  1261     006A  3080               	movlw	128
  1262     006B  00A1               	movwf	clcd_print@str+1
  1263     006C  30C0               	movlw	192
  1264     006D  00A2               	movwf	clcd_print@addr
  1265     006E  120A  118A  21C1  120A  118A  	fcall	_clcd_print
  1266     0073                     l2091:
  1267                           
  1268                           ;main.c: 42:                     clear_screen();
  1269     0073  3027               	movlw	39
  1270     0074  1283               	bcf	3,5	;RP0=0, select bank0
  1271     0075  1303               	bcf	3,6	;RP1=0, select bank0
  1272     0076  00B2               	movwf	??_main+2
  1273     0077  300D               	movlw	13
  1274     0078  00B1               	movwf	??_main+1
  1275     0079  3025               	movlw	37
  1276     007A  00B0               	movwf	??_main
  1277     007B                     u1807:
  1278     007B  0BB0               	decfsz	??_main,f
  1279     007C  287B               	goto	u1807
  1280     007D  0BB1               	decfsz	??_main+1,f
  1281     007E  287B               	goto	u1807
  1282     007F  0BB2               	decfsz	??_main+2,f
  1283     0080  287B               	goto	u1807
  1284     0081  2882               	nop2
  1285     0082                     l2093:
  1286                           
  1287                           ;main.c: 43:                     clcd_print(" GRILL MODE ", ((unsigned char)(0x80 + 0)))
      +                          ;
  1288     0082  120A  158A  2761  120A  118A  	fcall	_clear_screen
  1289     0087                     l2095:
  1290                           
  1291                           ;main.c: 44:                     _delay((unsigned long)((1000)*(20000000/4000.0)));
  1292     0087  120A  158A  27D8  120A  118A  	fcall	_display_time_screen
  1293                           
  1294                           ;main.c: 45:                     clear_screen();
  1295     008C  283C               	goto	l2077
  1296     008D                     l2097:
  1297     008D  3002               	movlw	2
  1298     008E  0633               	xorwf	main@key,w
  1299     008F  1D03               	btfss	3,2
  1300     0090  2892               	goto	u1671
  1301     0091  2893               	goto	u1670
  1302     0092                     u1671:
  1303     0092  28B7               	goto	l2111
  1304     0093                     u1670:
  1305     0093                     l2099:
  1306                           
  1307                           ;main.c: 46:                     display_time_screen();
  1308     0093  3004               	movlw	4
  1309     0094  00C0               	movwf	_state
  1310     0095                     l2101:
  1311                           
  1312                           ;main.c: 47:                 } else if (key == 3) {
  1313     0095  120A  158A  2761  120A  118A  	fcall	_clear_screen
  1314     009A                     l2103:
  1315                           
  1316                           ;main.c: 48:                     state = 0x0A;
  1317     009A  3088               	movlw	(low ((STR_3-__stringbase)| (0+32768)))& (0+255)
  1318     009B  1283               	bcf	3,5	;RP0=0, select bank0
  1319     009C  1303               	bcf	3,6	;RP1=0, select bank0
  1320     009D  00A0               	movwf	clcd_print@str
  1321     009E  3080               	movlw	128
  1322     009F  00A1               	movwf	clcd_print@str+1
  1323     00A0  3080               	movlw	128
  1324     00A1  00A2               	movwf	clcd_print@addr
  1325     00A2  120A  118A  21C1  120A  118A  	fcall	_clcd_print
  1326     00A7                     l2105:
  1327                           
  1328                           ;main.c: 49:                     clear_screen();
  1329     00A7  301A               	movlw	26
  1330     00A8  1283               	bcf	3,5	;RP0=0, select bank0
  1331     00A9  1303               	bcf	3,6	;RP1=0, select bank0
  1332     00AA  00B2               	movwf	??_main+2
  1333     00AB  305E               	movlw	94
  1334     00AC  00B1               	movwf	??_main+1
  1335     00AD  306D               	movlw	109
  1336     00AE  00B0               	movwf	??_main
  1337     00AF                     u1817:
  1338     00AF  0BB0               	decfsz	??_main,f
  1339     00B0  28AF               	goto	u1817
  1340     00B1  0BB1               	decfsz	??_main+1,f
  1341     00B2  28AF               	goto	u1817
  1342     00B3  0BB2               	decfsz	??_main+2,f
  1343     00B4  28AF               	goto	u1817
  1344     00B5  28B6               	nop2
  1345     00B6  2882               	goto	l2093
  1346     00B7                     l2111:
  1347     00B7  3003               	movlw	3
  1348     00B8  0633               	xorwf	main@key,w
  1349     00B9  1D03               	btfss	3,2
  1350     00BA  28BC               	goto	u1681
  1351     00BB  28BD               	goto	u1680
  1352     00BC                     u1681:
  1353     00BC  28DF               	goto	l2121
  1354     00BD                     u1680:
  1355     00BD                     l2113:
  1356                           
  1357                           ;main.c: 53:                     min = 0;
  1358     00BD  300A               	movlw	10
  1359     00BE  00C0               	movwf	_state
  1360     00BF                     l2115:
  1361                           
  1362                           ;main.c: 54:                     sec = 30;
  1363     00BF  120A  158A  2761  120A  118A  	fcall	_clear_screen
  1364     00C4                     l2117:
  1365                           
  1366                           ;main.c: 55:                     state = 0x07;
  1367     00C4  3041               	movlw	(low ((STR_4-__stringbase)| (0+32768)))& (0+255)
  1368     00C5  1283               	bcf	3,5	;RP0=0, select bank0
  1369     00C6  1303               	bcf	3,6	;RP1=0, select bank0
  1370     00C7  00A0               	movwf	clcd_print@str
  1371     00C8  3080               	movlw	128
  1372     00C9  00A1               	movwf	clcd_print@str+1
  1373     00CA  3080               	movlw	128
  1374     00CB  00A2               	movwf	clcd_print@addr
  1375     00CC  120A  118A  21C1  120A  118A  	fcall	_clcd_print
  1376     00D1                     l2119:
  1377                           
  1378                           ;main.c: 56:                     run_timer = 1;
  1379     00D1  307B               	movlw	(low ((STR_5-__stringbase)| (0+32768)))& (0+255)
  1380     00D2  1283               	bcf	3,5	;RP0=0, select bank0
  1381     00D3  1303               	bcf	3,6	;RP1=0, select bank0
  1382     00D4  00A0               	movwf	clcd_print@str
  1383     00D5  3080               	movlw	128
  1384     00D6  00A1               	movwf	clcd_print@str+1
  1385     00D7  30C0               	movlw	192
  1386     00D8  00A2               	movwf	clcd_print@addr
  1387     00D9  120A  118A  21C1  120A  118A  	fcall	_clcd_print
  1388                           
  1389                           ;main.c: 57:                     RC2 = 1;
  1390     00DE  283C               	goto	l2077
  1391     00DF                     l2121:
  1392     00DF  3004               	movlw	4
  1393     00E0  0633               	xorwf	main@key,w
  1394     00E1  1D03               	btfss	3,2
  1395     00E2  28E4               	goto	u1691
  1396     00E3  28E5               	goto	u1690
  1397     00E4                     u1691:
  1398     00E4  283C               	goto	l2077
  1399     00E5                     u1690:
  1400     00E5                     l2123:
  1401                           
  1402                           ;main.c: 58:                     clear_screen();
  1403     00E5  01BC               	clrf	_min
  1404     00E6  01BD               	clrf	_min+1
  1405     00E7                     l2125:
  1406                           
  1407                           ;main.c: 59:                 }
  1408     00E7  301E               	movlw	30
  1409     00E8  00BE               	movwf	_sec
  1410     00E9  3000               	movlw	0
  1411     00EA  00BF               	movwf	_sec+1
  1412     00EB                     l2127:
  1413                           
  1414                           ;main.c: 60:                 break;
  1415     00EB  3007               	movlw	7
  1416     00EC  00C0               	movwf	_state
  1417     00ED                     l2129:
  1418                           
  1419                           ;main.c: 61: 
  1420     00ED  3001               	movlw	1
  1421     00EE  00B8               	movwf	_run_timer
  1422     00EF  3000               	movlw	0
  1423     00F0  00B9               	movwf	_run_timer+1
  1424     00F1                     l2131:
  1425                           
  1426                           ;main.c: 62:             case 0x03:
  1427     00F1  1507               	bsf	7,2	;volatile
  1428     00F2  2837               	goto	l2075
  1429     00F3                     l2135:
  1430                           
  1431                           ;main.c: 70:                 } else if (key == '*') {
  1432     00F3  3023               	movlw	35
  1433     00F4  0633               	xorwf	main@key,w
  1434     00F5  1D03               	btfss	3,2
  1435     00F6  28F8               	goto	u1701
  1436     00F7  28F9               	goto	u1700
  1437     00F8                     u1701:
  1438     00F8  28FA               	goto	l2145
  1439     00F9                     u1700:
  1440     00F9  28EB               	goto	l2127
  1441     00FA                     l2145:
  1442     00FA  302A               	movlw	42
  1443     00FB  0633               	xorwf	main@key,w
  1444     00FC  1D03               	btfss	3,2
  1445     00FD  28FF               	goto	u1711
  1446     00FE  2900               	goto	u1710
  1447     00FF                     u1711:
  1448     00FF  290F               	goto	l2151
  1449     0100                     u1710:
  1450     0100                     l2147:
  1451                           
  1452                           ;main.c: 76:                 }
  1453     0100  01BC               	clrf	_min
  1454     0101  01BD               	clrf	_min+1
  1455                           
  1456                           ;main.c: 77:                 break;
  1457     0102  01BE               	clrf	_sec
  1458     0103  01BF               	clrf	_sec+1
  1459     0104                     l2149:
  1460                           
  1461                           ;main.c: 78: 
  1462     0104  303C               	movlw	(low (_min| 0))& (0+255)
  1463     0105  00A5               	movwf	set_time@min
  1464     0106  303E               	movlw	(low (_sec| 0))& (0+255)
  1465     0107  00A6               	movwf	set_time@sec
  1466     0108  0833               	movf	main@key,w
  1467     0109  120A  118A  22FA  120A  118A  	fcall	_set_time
  1468                           
  1469                           ;main.c: 79:             case 0x0A:
  1470     010E  283C               	goto	l2077
  1471     010F                     l2151:
  1472     010F  0A33               	incf	main@key,w
  1473     0110  1903               	btfsc	3,2
  1474     0111  2913               	goto	u1721
  1475     0112  2914               	goto	u1720
  1476     0113                     u1721:
  1477     0113  283C               	goto	l2077
  1478     0114                     u1720:
  1479     0114                     l2153:
  1480                           
  1481                           ;main.c: 80:                 if (key != 0xFF) {
  1482     0114  303C               	movlw	(low (_min| 0))& (0+255)
  1483     0115  00A5               	movwf	set_time@min
  1484     0116  303E               	movlw	(low (_sec| 0))& (0+255)
  1485     0117  00A6               	movwf	set_time@sec
  1486     0118  0833               	movf	main@key,w
  1487     0119  120A  118A  22FA  120A  118A  	fcall	_set_time
  1488     011E  283C               	goto	l2077
  1489     011F                     l2155:
  1490                           
  1491                           ;main.c: 85:                     } else {
  1492     011F  0A33               	incf	main@key,w
  1493     0120  1903               	btfsc	3,2
  1494     0121  2923               	goto	u1731
  1495     0122  2924               	goto	u1730
  1496     0123                     u1731:
  1497     0123  283C               	goto	l2077
  1498     0124                     u1730:
  1499     0124                     l2157:
  1500                           
  1501                           ;main.c: 86:                         set_temp(key, &temp);
  1502     0124  3023               	movlw	35
  1503     0125  0633               	xorwf	main@key,w
  1504     0126  1D03               	btfss	3,2
  1505     0127  2929               	goto	u1741
  1506     0128  292A               	goto	u1740
  1507     0129                     u1741:
  1508     0129  292D               	goto	l2165
  1509     012A                     u1740:
  1510     012A                     l2159:
  1511                           
  1512                           ;main.c: 87:                     }
  1513     012A  3005               	movlw	5
  1514     012B  00C0               	movwf	_state
  1515     012C  2882               	goto	l2093
  1516     012D                     l2165:
  1517                           
  1518                           ;main.c: 91:             case 0x07:
  1519     012D  303A               	movlw	(low (_temp| 0))& (0+255)
  1520     012E  00A5               	movwf	set_temp@temp
  1521     012F  0833               	movf	main@key,w
  1522     0130  120A  118A  23E6  120A  118A  	fcall	_set_temp
  1523     0135  283C               	goto	l2077
  1524     0136                     l2167:
  1525                           
  1526                           ;main.c: 97:                     RC1 = 1;
  1527     0136  083D               	movf	_min+1,w
  1528     0137  00A6               	movwf	operation_mode@min+1
  1529     0138  083C               	movf	_min,w
  1530     0139  00A5               	movwf	operation_mode@min
  1531     013A  083F               	movf	_sec+1,w
  1532     013B  00A8               	movwf	operation_mode@sec+1
  1533     013C  083E               	movf	_sec,w
  1534     013D  00A7               	movwf	operation_mode@sec
  1535     013E  120A  118A  2568  120A  118A  	fcall	_operation_mode
  1536     0143                     l2169:
  1537                           
  1538                           ;main.c: 99:                     clcd_print("  TIME UP!!  ", ((unsigned char)(0xC0 + 2))
      +                          );
  1539     0143  1283               	bcf	3,5	;RP0=0, select bank0
  1540     0144  1303               	bcf	3,6	;RP1=0, select bank0
  1541     0145  083C               	movf	_min,w
  1542     0146  043D               	iorwf	_min+1,w
  1543     0147  1D03               	btfss	3,2
  1544     0148  294A               	goto	u1751
  1545     0149  294B               	goto	u1750
  1546     014A                     u1751:
  1547     014A  2981               	goto	l2191
  1548     014B                     u1750:
  1549     014B                     l2171:
  1550     014B  083E               	movf	_sec,w
  1551     014C  043F               	iorwf	_sec+1,w
  1552     014D  1D03               	btfss	3,2
  1553     014E  2950               	goto	u1761
  1554     014F  2951               	goto	u1760
  1555     0150                     u1761:
  1556     0150  2981               	goto	l2191
  1557     0151                     u1760:
  1558     0151                     l2173:
  1559                           
  1560                           ;main.c: 100:                     _delay((unsigned long)((2000)*(20000000/4000.0)));
  1561     0151  01B8               	clrf	_run_timer
  1562     0152  01B9               	clrf	_run_timer+1
  1563     0153                     l2175:
  1564                           
  1565                           ;main.c: 101:                     RC1 = 0;
  1566     0153  1107               	bcf	7,2	;volatile
  1567     0154                     l2177:
  1568                           
  1569                           ;main.c: 102:                     clear_screen();
  1570     0154  1487               	bsf	7,1	;volatile
  1571     0155                     l2179:
  1572                           
  1573                           ;main.c: 103:                     state = 0x02;
  1574     0155  120A  158A  2761  120A  118A  	fcall	_clear_screen
  1575     015A                     l2181:
  1576                           
  1577                           ;main.c: 104:                 }
  1578     015A  306D               	movlw	(low ((STR_6-__stringbase)| (0+32768)))& (0+255)
  1579     015B  1283               	bcf	3,5	;RP0=0, select bank0
  1580     015C  1303               	bcf	3,6	;RP1=0, select bank0
  1581     015D  00A0               	movwf	clcd_print@str
  1582     015E  3080               	movlw	128
  1583     015F  00A1               	movwf	clcd_print@str+1
  1584     0160  30C2               	movlw	194
  1585     0161  00A2               	movwf	clcd_print@addr
  1586     0162  120A  118A  21C1  120A  118A  	fcall	_clcd_print
  1587     0167                     l2183:
  1588                           
  1589                           ;main.c: 105: 
  1590     0167  3033               	movlw	51
  1591     0168  1283               	bcf	3,5	;RP0=0, select bank0
  1592     0169  1303               	bcf	3,6	;RP1=0, select bank0
  1593     016A  00B2               	movwf	??_main+2
  1594     016B  30BB               	movlw	187
  1595     016C  00B1               	movwf	??_main+1
  1596     016D  30DF               	movlw	223
  1597     016E  00B0               	movwf	??_main
  1598     016F                     u1827:
  1599     016F  0BB0               	decfsz	??_main,f
  1600     0170  296F               	goto	u1827
  1601     0171  0BB1               	decfsz	??_main+1,f
  1602     0172  296F               	goto	u1827
  1603     0173  0BB2               	decfsz	??_main+2,f
  1604     0174  296F               	goto	u1827
  1605     0175                     l2185:
  1606                           
  1607                           ;main.c: 106:                 if (key == 4) {
  1608     0175  1283               	bcf	3,5	;RP0=0, select bank0
  1609     0176  1303               	bcf	3,6	;RP1=0, select bank0
  1610     0177  1087               	bcf	7,1	;volatile
  1611     0178                     l2187:
  1612                           
  1613                           ;main.c: 107:                     run_timer = 1;
  1614     0178  120A  158A  2761  120A  118A  	fcall	_clear_screen
  1615     017D                     l2189:
  1616                           
  1617                           ;main.c: 108:                     RC2 = 1;
  1618     017D  3002               	movlw	2
  1619     017E  1283               	bcf	3,5	;RP0=0, select bank0
  1620     017F  1303               	bcf	3,6	;RP1=0, select bank0
  1621     0180  00C0               	movwf	_state
  1622     0181                     l2191:
  1623                           
  1624                           ;main.c: 111:                     RC2 = 0;
  1625     0181  3004               	movlw	4
  1626     0182  0633               	xorwf	main@key,w
  1627     0183  1D03               	btfss	3,2
  1628     0184  2986               	goto	u1771
  1629     0185  2987               	goto	u1770
  1630     0186                     u1771:
  1631     0186  298D               	goto	l2197
  1632     0187                     u1770:
  1633     0187                     l2193:
  1634                           
  1635                           ;main.c: 112:                 } else if (key == 6) {
  1636     0187  3001               	movlw	1
  1637     0188  00B8               	movwf	_run_timer
  1638     0189  3000               	movlw	0
  1639     018A  00B9               	movwf	_run_timer+1
  1640     018B                     l2195:
  1641                           
  1642                           ;main.c: 113:                     run_timer = 0;
  1643     018B  1507               	bsf	7,2	;volatile
  1644                           
  1645                           ;main.c: 114:                     RC2 = 0;
  1646     018C  283C               	goto	l2077
  1647     018D                     l2197:
  1648     018D  3005               	movlw	5
  1649     018E  0633               	xorwf	main@key,w
  1650     018F  1D03               	btfss	3,2
  1651     0190  2992               	goto	u1781
  1652     0191  2993               	goto	u1780
  1653     0192                     u1781:
  1654     0192  2997               	goto	l2203
  1655     0193                     u1780:
  1656     0193                     l2199:
  1657                           
  1658                           ;main.c: 115:                     clear_screen();
  1659     0193  01B8               	clrf	_run_timer
  1660     0194  01B9               	clrf	_run_timer+1
  1661     0195                     l2201:
  1662                           
  1663                           ;main.c: 116:                     state = 0x02;
  1664     0195  1107               	bcf	7,2	;volatile
  1665                           
  1666                           ;main.c: 117:                 }
  1667     0196  283C               	goto	l2077
  1668     0197                     l2203:
  1669     0197  3006               	movlw	6
  1670     0198  0633               	xorwf	main@key,w
  1671     0199  1D03               	btfss	3,2
  1672     019A  299C               	goto	u1791
  1673     019B  299D               	goto	u1790
  1674     019C                     u1791:
  1675     019C  283C               	goto	l2077
  1676     019D                     u1790:
  1677     019D                     l2205:
  1678                           
  1679                           ;main.c: 118:                 break;
  1680     019D  01B8               	clrf	_run_timer
  1681     019E  01B9               	clrf	_run_timer+1
  1682     019F                     l2207:
  1683                           
  1684                           ;main.c: 119:         }
  1685     019F  1107               	bcf	7,2	;volatile
  1686     01A0                     l2209:
  1687                           
  1688                           ;main.c: 120:     }
  1689     01A0  120A  158A  2761  120A  118A  	fcall	_clear_screen
  1690     01A5                     l2211:
  1691                           
  1692                           ;main.c: 121: }
  1693     01A5  3002               	movlw	2
  1694     01A6  1283               	bcf	3,5	;RP0=0, select bank0
  1695     01A7  1303               	bcf	3,6	;RP1=0, select bank0
  1696     01A8  00C0               	movwf	_state
  1697     01A9  283C               	goto	l2077
  1698     01AA                     l2215:
  1699     01AA  0840               	movf	_state,w
  1700                           
  1701                           ; Switch size 1, requested type "simple"
  1702                           ; Number of cases is 6, Range of values is 2 to 10
  1703                           ; switch strategies available:
  1704                           ; Name         Instructions Cycles
  1705                           ; simple_byte           19    10 (average)
  1706                           ; direct_byte           38    11 (fixed)
  1707                           ; jumptable            263     9 (fixed)
  1708                           ;	Chosen strategy is simple_byte
  1709     01AB  3A02               	xorlw	2	; case 2
  1710     01AC  1903               	skipnz
  1711     01AD  2846               	goto	l2079
  1712     01AE  3A01               	xorlw	1	; case 3
  1713     01AF  1903               	skipnz
  1714     01B0  28F3               	goto	l2135
  1715     01B1  3A07               	xorlw	7	; case 4
  1716     01B2  1903               	skipnz
  1717     01B3  28F3               	goto	l2135
  1718     01B4  3A01               	xorlw	1	; case 5
  1719     01B5  1903               	skipnz
  1720     01B6  28F3               	goto	l2135
  1721     01B7  3A02               	xorlw	2	; case 7
  1722     01B8  1903               	skipnz
  1723     01B9  2936               	goto	l2167
  1724     01BA  3A0D               	xorlw	13	; case 10
  1725     01BB  1903               	skipnz
  1726     01BC  291F               	goto	l2155
  1727     01BD  283C               	goto	l2077
  1728     01BE  120A  118A  280C   	ljmp	start
  1729     01C1                     __end_of_main:
  1730                           
  1731                           	psect	text1
  1732     02FA                     __ptext1:	
  1733 ;; *************** function _set_time *****************
  1734 ;; Defined at:
  1735 ;;		line 36 in file "micro_oven.c"
  1736 ;; Parameters:    Size  Location     Type
  1737 ;;  key             1    wreg     unsigned char 
  1738 ;;  min             1    5[BANK0 ] PTR unsigned int 
  1739 ;;		 -> min(2), 
  1740 ;;  sec             1    6[BANK0 ] PTR unsigned int 
  1741 ;;		 -> sec(2), 
  1742 ;; Auto vars:     Size  Location     Type
  1743 ;;  key             1   15[BANK0 ] unsigned char 
  1744 ;;  time_str        6    9[BANK0 ] unsigned char [6]
  1745 ;; Return value:  Size  Location     Type
  1746 ;;                  1    wreg      void 
  1747 ;; Registers used:
  1748 ;;		wreg, fsr0l, fsr0h, status,2, status,0, pclath, btemp1, cstack
  1749 ;; Tracked objects:
  1750 ;;		On entry : 0/0
  1751 ;;		On exit  : 0/0
  1752 ;;		Unchanged: 0/0
  1753 ;; Data sizes:     COMMON   BANK0   BANK1   BANK3   BANK2
  1754 ;;      Params:         0       2       0       0       0
  1755 ;;      Locals:         0       7       0       0       0
  1756 ;;      Temps:          0       2       0       0       0
  1757 ;;      Totals:         0      11       0       0       0
  1758 ;;Total ram usage:       11 bytes
  1759 ;; Hardware stack levels used: 1
  1760 ;; Hardware stack levels required when called: 2
  1761 ;; This function calls:
  1762 ;;		___lwdiv
  1763 ;;		___lwmod
  1764 ;;		___wmul
  1765 ;;		_clcd_print
  1766 ;; This function is called by:
  1767 ;;		_main
  1768 ;; This function uses a non-reentrant model
  1769 ;;
  1770                           
  1771     02FA                     _set_time:	
  1772                           ;psect for function _set_time
  1773                           
  1774                           
  1775                           ;incstack = 0
  1776                           ; Regs used in _set_time: [wreg-fsr0h+status,2+status,0+pclath+btemp1+cstack]
  1777                           ;set_time@key stored from wreg
  1778     02FA  1283               	bcf	3,5	;RP0=0, select bank0
  1779     02FB  1303               	bcf	3,6	;RP1=0, select bank0
  1780     02FC  00AF               	movwf	set_time@key
  1781     02FD                     l1965:
  1782                           
  1783                           ;micro_oven.c: 37:     static int pos = 0;;micro_oven.c: 39:     if (key == '*') {
  1784     02FD  302A               	movlw	42
  1785     02FE  062F               	xorwf	set_time@key,w
  1786     02FF  1D03               	btfss	3,2
  1787     0300  2B02               	goto	u1551
  1788     0301  2B03               	goto	u1550
  1789     0302                     u1551:
  1790     0302  2B11               	goto	l1971
  1791     0303                     u1550:
  1792     0303                     l1967:
  1793                           
  1794                           ;micro_oven.c: 40:         *min = 0;
  1795     0303  0825               	movf	set_time@min,w
  1796     0304  0084               	movwf	4
  1797     0305  1383               	bcf	3,7	;select IRP bank0
  1798     0306  0180               	clrf	0
  1799     0307  0A84               	incf	4,f
  1800     0308  0180               	clrf	0
  1801                           
  1802                           ;micro_oven.c: 41:         *sec = 0;
  1803     0309  0826               	movf	set_time@sec,w
  1804     030A  0084               	movwf	4
  1805     030B  0180               	clrf	0
  1806     030C  0A84               	incf	4,f
  1807     030D  0180               	clrf	0
  1808     030E                     l1969:
  1809                           
  1810                           ;micro_oven.c: 42:         pos = 0;
  1811     030E  01B6               	clrf	set_time@pos
  1812     030F  01B7               	clrf	set_time@pos+1
  1813                           
  1814                           ;micro_oven.c: 43:     } else if (key <= 9) {
  1815     0310  2B7F               	goto	l1997
  1816     0311                     l1971:
  1817     0311  300A               	movlw	10
  1818     0312  022F               	subwf	set_time@key,w
  1819     0313  1803               	skipnc
  1820     0314  2B16               	goto	u1561
  1821     0315  2B17               	goto	u1560
  1822     0316                     u1561:
  1823     0316  2B7F               	goto	l1997
  1824     0317                     u1560:
  1825     0317                     l1973:
  1826                           
  1827                           ;micro_oven.c: 44:         if (pos == 0) {
  1828     0317  0836               	movf	set_time@pos,w
  1829     0318  0437               	iorwf	set_time@pos+1,w
  1830     0319  1D03               	btfss	3,2
  1831     031A  2B1C               	goto	u1571
  1832     031B  2B1D               	goto	u1570
  1833     031C                     u1571:
  1834     031C  2B3E               	goto	l1979
  1835     031D                     u1570:
  1836     031D                     l1975:
  1837                           
  1838                           ;micro_oven.c: 45:             *min = (unsigned int)key * 10;
  1839     031D  082F               	movf	set_time@key,w
  1840     031E  00A7               	movwf	??_set_time
  1841     031F  01A8               	clrf	??_set_time+1
  1842     0320  0827               	movf	??_set_time,w
  1843     0321  00F2               	movwf	___wmul@multiplier
  1844     0322  0828               	movf	??_set_time+1,w
  1845     0323  00F3               	movwf	___wmul@multiplier+1
  1846     0324  300A               	movlw	10
  1847     0325  00F4               	movwf	___wmul@multiplicand
  1848     0326  3000               	movlw	0
  1849     0327  00F5               	movwf	___wmul@multiplicand+1
  1850     0328  120A  158A  27B3  120A  118A  	fcall	___wmul
  1851     032D  1283               	bcf	3,5	;RP0=0, select bank0
  1852     032E  1303               	bcf	3,6	;RP1=0, select bank0
  1853     032F  0825               	movf	set_time@min,w
  1854     0330  0084               	movwf	4
  1855     0331  0872               	movf	?___wmul,w
  1856     0332  1383               	bcf	3,7	;select IRP bank0
  1857     0333  0080               	movwf	0
  1858     0334  0A84               	incf	4,f
  1859     0335  0873               	movf	?___wmul+1,w
  1860     0336  0080               	movwf	0
  1861     0337                     l1977:
  1862                           
  1863                           ;micro_oven.c: 46:             pos++;
  1864     0337  3001               	movlw	1
  1865     0338  07B6               	addwf	set_time@pos,f
  1866     0339  1803               	skipnc
  1867     033A  0AB7               	incf	set_time@pos+1,f
  1868     033B  3000               	movlw	0
  1869     033C  07B7               	addwf	set_time@pos+1,f
  1870                           
  1871                           ;micro_oven.c: 47:         } else if (pos == 1) {
  1872     033D  2B7F               	goto	l1997
  1873     033E                     l1979:
  1874     033E  0336               	decf	set_time@pos,w
  1875     033F  0437               	iorwf	set_time@pos+1,w
  1876     0340  1D03               	btfss	3,2
  1877     0341  2B43               	goto	u1581
  1878     0342  2B44               	goto	u1580
  1879     0343                     u1581:
  1880     0343  2B4D               	goto	l1985
  1881     0344                     u1580:
  1882     0344                     l1981:
  1883                           
  1884                           ;micro_oven.c: 48:             *min += (unsigned int)key;
  1885     0344  0825               	movf	set_time@min,w
  1886     0345  0084               	movwf	4
  1887     0346  082F               	movf	set_time@key,w
  1888     0347  1383               	bcf	3,7	;select IRP bank0
  1889     0348  0780               	addwf	0,f
  1890     0349  0A84               	incf	4,f
  1891     034A  1803               	skipnc
  1892     034B  0A80               	incf	0,f
  1893     034C  2B37               	goto	l1977
  1894     034D                     l1985:
  1895     034D  3002               	movlw	2
  1896     034E  0636               	xorwf	set_time@pos,w
  1897     034F  0437               	iorwf	set_time@pos+1,w
  1898     0350  1D03               	btfss	3,2
  1899     0351  2B53               	goto	u1591
  1900     0352  2B54               	goto	u1590
  1901     0353                     u1591:
  1902     0353  2B6F               	goto	l1991
  1903     0354                     u1590:
  1904     0354                     l1987:
  1905                           
  1906                           ;micro_oven.c: 51:             *sec = (unsigned int)key * 10;
  1907     0354  082F               	movf	set_time@key,w
  1908     0355  00A7               	movwf	??_set_time
  1909     0356  01A8               	clrf	??_set_time+1
  1910     0357  0827               	movf	??_set_time,w
  1911     0358  00F2               	movwf	___wmul@multiplier
  1912     0359  0828               	movf	??_set_time+1,w
  1913     035A  00F3               	movwf	___wmul@multiplier+1
  1914     035B  300A               	movlw	10
  1915     035C  00F4               	movwf	___wmul@multiplicand
  1916     035D  3000               	movlw	0
  1917     035E  00F5               	movwf	___wmul@multiplicand+1
  1918     035F  120A  158A  27B3  120A  118A  	fcall	___wmul
  1919     0364  1283               	bcf	3,5	;RP0=0, select bank0
  1920     0365  1303               	bcf	3,6	;RP1=0, select bank0
  1921     0366  0826               	movf	set_time@sec,w
  1922     0367  0084               	movwf	4
  1923     0368  0872               	movf	?___wmul,w
  1924     0369  1383               	bcf	3,7	;select IRP bank0
  1925     036A  0080               	movwf	0
  1926     036B  0A84               	incf	4,f
  1927     036C  0873               	movf	?___wmul+1,w
  1928     036D  0080               	movwf	0
  1929     036E  2B37               	goto	l1977
  1930     036F                     l1991:
  1931     036F  3003               	movlw	3
  1932     0370  0636               	xorwf	set_time@pos,w
  1933     0371  0437               	iorwf	set_time@pos+1,w
  1934     0372  1D03               	btfss	3,2
  1935     0373  2B75               	goto	u1601
  1936     0374  2B76               	goto	u1600
  1937     0375                     u1601:
  1938     0375  2B7F               	goto	l1997
  1939     0376                     u1600:
  1940     0376                     l1993:
  1941                           
  1942                           ;micro_oven.c: 54:             *sec += (unsigned int)key;
  1943     0376  0826               	movf	set_time@sec,w
  1944     0377  0084               	movwf	4
  1945     0378  082F               	movf	set_time@key,w
  1946     0379  1383               	bcf	3,7	;select IRP bank0
  1947     037A  0780               	addwf	0,f
  1948     037B  0A84               	incf	4,f
  1949     037C  1803               	skipnc
  1950     037D  0A80               	incf	0,f
  1951     037E  2B0E               	goto	l1969
  1952     037F                     l1997:
  1953                           
  1954                           ;micro_oven.c: 59:     char time_str[6];;micro_oven.c: 60:     time_str[0] = (char)((*mi
      +                          n / 10) + '0');
  1955     037F  300A               	movlw	10
  1956     0380  00F2               	movwf	___lwdiv@divisor
  1957     0381  3000               	movlw	0
  1958     0382  00F3               	movwf	___lwdiv@divisor+1
  1959     0383  0825               	movf	set_time@min,w
  1960     0384  0084               	movwf	4
  1961     0385  1383               	bcf	3,7	;select IRP bank0
  1962     0386  0800               	movf	0,w
  1963     0387  00F4               	movwf	___lwdiv@dividend
  1964     0388  0A84               	incf	4,f
  1965     0389  0800               	movf	0,w
  1966     038A  00F5               	movwf	___lwdiv@dividend+1
  1967     038B  120A  118A  26CD  120A  118A  	fcall	___lwdiv
  1968     0390  0872               	movf	?___lwdiv,w
  1969     0391  3E30               	addlw	48
  1970     0392  1283               	bcf	3,5	;RP0=0, select bank0
  1971     0393  1303               	bcf	3,6	;RP1=0, select bank0
  1972     0394  00A9               	movwf	set_time@time_str
  1973     0395                     l1999:
  1974                           
  1975                           ;micro_oven.c: 61:     time_str[1] = (char)((*min % 10) + '0');
  1976     0395  300A               	movlw	10
  1977     0396  00A0               	movwf	___lwmod@divisor
  1978     0397  3000               	movlw	0
  1979     0398  00A1               	movwf	___lwmod@divisor+1
  1980     0399  0825               	movf	set_time@min,w
  1981     039A  0084               	movwf	4
  1982     039B  1383               	bcf	3,7	;select IRP bank0
  1983     039C  0800               	movf	0,w
  1984     039D  00A2               	movwf	___lwmod@dividend
  1985     039E  0A84               	incf	4,f
  1986     039F  0800               	movf	0,w
  1987     03A0  00A3               	movwf	___lwmod@dividend+1
  1988     03A1  120A  118A  2751  120A  118A  	fcall	___lwmod
  1989     03A6  1283               	bcf	3,5	;RP0=0, select bank0
  1990     03A7  1303               	bcf	3,6	;RP1=0, select bank0
  1991     03A8  0820               	movf	?___lwmod,w
  1992     03A9  3E30               	addlw	48
  1993     03AA  00AA               	movwf	set_time@time_str+1
  1994     03AB                     l2001:
  1995                           
  1996                           ;micro_oven.c: 62:     time_str[2] = ':';
  1997     03AB  303A               	movlw	58
  1998     03AC  00AB               	movwf	set_time@time_str+2
  1999     03AD                     l2003:
  2000                           
  2001                           ;micro_oven.c: 63:     time_str[3] = (char)((*sec / 10) + '0');
  2002     03AD  300A               	movlw	10
  2003     03AE  00F2               	movwf	___lwdiv@divisor
  2004     03AF  3000               	movlw	0
  2005     03B0  00F3               	movwf	___lwdiv@divisor+1
  2006     03B1  0826               	movf	set_time@sec,w
  2007     03B2  0084               	movwf	4
  2008     03B3  1383               	bcf	3,7	;select IRP bank0
  2009     03B4  0800               	movf	0,w
  2010     03B5  00F4               	movwf	___lwdiv@dividend
  2011     03B6  0A84               	incf	4,f
  2012     03B7  0800               	movf	0,w
  2013     03B8  00F5               	movwf	___lwdiv@dividend+1
  2014     03B9  120A  118A  26CD  120A  118A  	fcall	___lwdiv
  2015     03BE  0872               	movf	?___lwdiv,w
  2016     03BF  3E30               	addlw	48
  2017     03C0  1283               	bcf	3,5	;RP0=0, select bank0
  2018     03C1  1303               	bcf	3,6	;RP1=0, select bank0
  2019     03C2  00AC               	movwf	set_time@time_str+3
  2020     03C3                     l2005:
  2021                           
  2022                           ;micro_oven.c: 64:     time_str[4] = (char)((*sec % 10) + '0');
  2023     03C3  300A               	movlw	10
  2024     03C4  00A0               	movwf	___lwmod@divisor
  2025     03C5  3000               	movlw	0
  2026     03C6  00A1               	movwf	___lwmod@divisor+1
  2027     03C7  0826               	movf	set_time@sec,w
  2028     03C8  0084               	movwf	4
  2029     03C9  1383               	bcf	3,7	;select IRP bank0
  2030     03CA  0800               	movf	0,w
  2031     03CB  00A2               	movwf	___lwmod@dividend
  2032     03CC  0A84               	incf	4,f
  2033     03CD  0800               	movf	0,w
  2034     03CE  00A3               	movwf	___lwmod@dividend+1
  2035     03CF  120A  118A  2751  120A  118A  	fcall	___lwmod
  2036     03D4  1283               	bcf	3,5	;RP0=0, select bank0
  2037     03D5  1303               	bcf	3,6	;RP1=0, select bank0
  2038     03D6  0820               	movf	?___lwmod,w
  2039     03D7  3E30               	addlw	48
  2040     03D8  00AD               	movwf	set_time@time_str+4
  2041     03D9                     l2007:
  2042                           
  2043                           ;micro_oven.c: 65:     time_str[5] = '\0';
  2044     03D9  01AE               	clrf	set_time@time_str+5
  2045     03DA                     l2009:
  2046                           
  2047                           ;micro_oven.c: 67:     clcd_print(time_str, ((unsigned char)(0xC0 + 6)));
  2048     03DA  3029               	movlw	(low (set_time@time_str| 0))& (0+255)
  2049     03DB  00A0               	movwf	clcd_print@str
  2050     03DC  3000               	movlw	0
  2051     03DD  00A1               	movwf	clcd_print@str+1
  2052     03DE  30C6               	movlw	198
  2053     03DF  00A2               	movwf	clcd_print@addr
  2054     03E0  120A  118A  21C1  120A  118A  	fcall	_clcd_print
  2055     03E5                     l163:
  2056     03E5  0008               	return
  2057     03E6                     __end_of_set_time:
  2058                           
  2059                           	psect	text2
  2060     03E6                     __ptext2:	
  2061 ;; *************** function _set_temp *****************
  2062 ;; Defined at:
  2063 ;;		line 70 in file "micro_oven.c"
  2064 ;; Parameters:    Size  Location     Type
  2065 ;;  key             1    wreg     unsigned char 
  2066 ;;  temp            1    5[BANK0 ] PTR unsigned int 
  2067 ;;		 -> temp(2), 
  2068 ;; Auto vars:     Size  Location     Type
  2069 ;;  key             1   13[BANK0 ] unsigned char 
  2070 ;;  temp_str        5    8[BANK0 ] unsigned char [5]
  2071 ;; Return value:  Size  Location     Type
  2072 ;;                  1    wreg      void 
  2073 ;; Registers used:
  2074 ;;		wreg, fsr0l, fsr0h, status,2, status,0, pclath, btemp1, cstack
  2075 ;; Tracked objects:
  2076 ;;		On entry : 0/0
  2077 ;;		On exit  : 0/0
  2078 ;;		Unchanged: 0/0
  2079 ;; Data sizes:     COMMON   BANK0   BANK1   BANK3   BANK2
  2080 ;;      Params:         0       1       0       0       0
  2081 ;;      Locals:         0       6       0       0       0
  2082 ;;      Temps:          0       2       0       0       0
  2083 ;;      Totals:         0       9       0       0       0
  2084 ;;Total ram usage:        9 bytes
  2085 ;; Hardware stack levels used: 1
  2086 ;; Hardware stack levels required when called: 2
  2087 ;; This function calls:
  2088 ;;		___lwdiv
  2089 ;;		___lwmod
  2090 ;;		___wmul
  2091 ;;		_clcd_print
  2092 ;; This function is called by:
  2093 ;;		_main
  2094 ;; This function uses a non-reentrant model
  2095 ;;
  2096                           
  2097     03E6                     _set_temp:	
  2098                           ;psect for function _set_temp
  2099                           
  2100                           
  2101                           ;incstack = 0
  2102                           ; Regs used in _set_temp: [wreg-fsr0h+status,2+status,0+pclath+btemp1+cstack]
  2103                           ;set_temp@key stored from wreg
  2104     03E6  1283               	bcf	3,5	;RP0=0, select bank0
  2105     03E7  1303               	bcf	3,6	;RP1=0, select bank0
  2106     03E8  00AD               	movwf	set_temp@key
  2107     03E9                     l2011:
  2108                           
  2109                           ;micro_oven.c: 71:     static int pos = 0;;micro_oven.c: 72:     if (key == '*') {
  2110     03E9  302A               	movlw	42
  2111     03EA  062D               	xorwf	set_temp@key,w
  2112     03EB  1D03               	btfss	3,2
  2113     03EC  2BEE               	goto	u1611
  2114     03ED  2BEF               	goto	u1610
  2115     03EE                     u1611:
  2116     03EE  2BF8               	goto	l2017
  2117     03EF                     u1610:
  2118     03EF                     l2013:
  2119                           
  2120                           ;micro_oven.c: 73:         *temp = 0;
  2121     03EF  0825               	movf	set_temp@temp,w
  2122     03F0  0084               	movwf	4
  2123     03F1  1383               	bcf	3,7	;select IRP bank0
  2124     03F2  0180               	clrf	0
  2125     03F3  0A84               	incf	4,f
  2126     03F4  0180               	clrf	0
  2127     03F5                     l2015:
  2128                           
  2129                           ;micro_oven.c: 74:         pos = 0;
  2130     03F5  01B4               	clrf	set_temp@pos
  2131     03F6  01B5               	clrf	set_temp@pos+1
  2132                           
  2133                           ;micro_oven.c: 75:     } else if (key <= 9) {
  2134     03F7  2C5C               	goto	l2037
  2135     03F8                     l2017:
  2136     03F8  300A               	movlw	10
  2137     03F9  022D               	subwf	set_temp@key,w
  2138     03FA  1803               	skipnc
  2139     03FB  2BFD               	goto	u1621
  2140     03FC  2BFE               	goto	u1620
  2141     03FD                     u1621:
  2142     03FD  2C5C               	goto	l2037
  2143     03FE                     u1620:
  2144     03FE                     l2019:
  2145                           
  2146                           ;micro_oven.c: 76:         if (pos == 0) {
  2147     03FE  0834               	movf	set_temp@pos,w
  2148     03FF  0435               	iorwf	set_temp@pos+1,w
  2149     0400  1D03               	btfss	3,2
  2150     0401  2C03               	goto	u1631
  2151     0402  2C04               	goto	u1630
  2152     0403                     u1631:
  2153     0403  2C25               	goto	l2025
  2154     0404                     u1630:
  2155     0404                     l2021:
  2156                           
  2157                           ;micro_oven.c: 77:             *temp = (unsigned int)key * 100;
  2158     0404  082D               	movf	set_temp@key,w
  2159     0405  00A6               	movwf	??_set_temp
  2160     0406  01A7               	clrf	??_set_temp+1
  2161     0407  0826               	movf	??_set_temp,w
  2162     0408  00F2               	movwf	___wmul@multiplier
  2163     0409  0827               	movf	??_set_temp+1,w
  2164     040A  00F3               	movwf	___wmul@multiplier+1
  2165     040B  3064               	movlw	100
  2166     040C  00F4               	movwf	___wmul@multiplicand
  2167     040D  3000               	movlw	0
  2168     040E  00F5               	movwf	___wmul@multiplicand+1
  2169     040F  120A  158A  27B3  120A  118A  	fcall	___wmul
  2170     0414  1283               	bcf	3,5	;RP0=0, select bank0
  2171     0415  1303               	bcf	3,6	;RP1=0, select bank0
  2172     0416  0825               	movf	set_temp@temp,w
  2173     0417  0084               	movwf	4
  2174     0418  0872               	movf	?___wmul,w
  2175     0419  1383               	bcf	3,7	;select IRP bank0
  2176     041A  0080               	movwf	0
  2177     041B  0A84               	incf	4,f
  2178     041C  0873               	movf	?___wmul+1,w
  2179     041D  0080               	movwf	0
  2180     041E                     l2023:
  2181                           
  2182                           ;micro_oven.c: 78:             pos++;
  2183     041E  3001               	movlw	1
  2184     041F  07B4               	addwf	set_temp@pos,f
  2185     0420  1803               	skipnc
  2186     0421  0AB5               	incf	set_temp@pos+1,f
  2187     0422  3000               	movlw	0
  2188     0423  07B5               	addwf	set_temp@pos+1,f
  2189                           
  2190                           ;micro_oven.c: 79:         } else if (pos == 1) {
  2191     0424  2C5C               	goto	l2037
  2192     0425                     l2025:
  2193     0425  0334               	decf	set_temp@pos,w
  2194     0426  0435               	iorwf	set_temp@pos+1,w
  2195     0427  1D03               	btfss	3,2
  2196     0428  2C2A               	goto	u1641
  2197     0429  2C2B               	goto	u1640
  2198     042A                     u1641:
  2199     042A  2C4C               	goto	l2031
  2200     042B                     u1640:
  2201     042B                     l2027:
  2202                           
  2203                           ;micro_oven.c: 80:             *temp += (unsigned int)key * 10;
  2204     042B  082D               	movf	set_temp@key,w
  2205     042C  00A6               	movwf	??_set_temp
  2206     042D  01A7               	clrf	??_set_temp+1
  2207     042E  0826               	movf	??_set_temp,w
  2208     042F  00F2               	movwf	___wmul@multiplier
  2209     0430  0827               	movf	??_set_temp+1,w
  2210     0431  00F3               	movwf	___wmul@multiplier+1
  2211     0432  300A               	movlw	10
  2212     0433  00F4               	movwf	___wmul@multiplicand
  2213     0434  3000               	movlw	0
  2214     0435  00F5               	movwf	___wmul@multiplicand+1
  2215     0436  120A  158A  27B3  120A  118A  	fcall	___wmul
  2216     043B  1283               	bcf	3,5	;RP0=0, select bank0
  2217     043C  1303               	bcf	3,6	;RP1=0, select bank0
  2218     043D  0825               	movf	set_temp@temp,w
  2219     043E  0084               	movwf	4
  2220     043F  0872               	movf	?___wmul,w
  2221     0440  1383               	bcf	3,7	;select IRP bank0
  2222     0441  0780               	addwf	0,f
  2223     0442  0F84               	incfsz	4,f
  2224     0443  0800               	movf	0,w
  2225     0444  1803               	skipnc
  2226     0445  0A00               	incf	0,w
  2227     0446  00FF               	movwf	btemp1
  2228     0447  0873               	movf	?___wmul+1,w
  2229     0448  077F               	addwf	btemp1,w
  2230     0449  0080               	movwf	0
  2231     044A  0384               	decf	4,f
  2232     044B  2C1E               	goto	l2023
  2233     044C                     l2031:
  2234     044C  3002               	movlw	2
  2235     044D  0634               	xorwf	set_temp@pos,w
  2236     044E  0435               	iorwf	set_temp@pos+1,w
  2237     044F  1D03               	btfss	3,2
  2238     0450  2C52               	goto	u1651
  2239     0451  2C53               	goto	u1650
  2240     0452                     u1651:
  2241     0452  2C5C               	goto	l2037
  2242     0453                     u1650:
  2243     0453                     l2033:
  2244                           
  2245                           ;micro_oven.c: 83:             *temp += (unsigned int)key;
  2246     0453  0825               	movf	set_temp@temp,w
  2247     0454  0084               	movwf	4
  2248     0455  082D               	movf	set_temp@key,w
  2249     0456  1383               	bcf	3,7	;select IRP bank0
  2250     0457  0780               	addwf	0,f
  2251     0458  0A84               	incf	4,f
  2252     0459  1803               	skipnc
  2253     045A  0A80               	incf	0,f
  2254     045B  2BF5               	goto	l2015
  2255     045C                     l2037:
  2256                           
  2257                           ;micro_oven.c: 87:     char temp_str[5];;micro_oven.c: 88:     temp_str[0] = (char)((*te
      +                          mp / 100) + '0');
  2258     045C  3064               	movlw	100
  2259     045D  00F2               	movwf	___lwdiv@divisor
  2260     045E  3000               	movlw	0
  2261     045F  00F3               	movwf	___lwdiv@divisor+1
  2262     0460  0825               	movf	set_temp@temp,w
  2263     0461  0084               	movwf	4
  2264     0462  1383               	bcf	3,7	;select IRP bank0
  2265     0463  0800               	movf	0,w
  2266     0464  00F4               	movwf	___lwdiv@dividend
  2267     0465  0A84               	incf	4,f
  2268     0466  0800               	movf	0,w
  2269     0467  00F5               	movwf	___lwdiv@dividend+1
  2270     0468  120A  118A  26CD  120A  118A  	fcall	___lwdiv
  2271     046D  0872               	movf	?___lwdiv,w
  2272     046E  3E30               	addlw	48
  2273     046F  1283               	bcf	3,5	;RP0=0, select bank0
  2274     0470  1303               	bcf	3,6	;RP1=0, select bank0
  2275     0471  00A8               	movwf	set_temp@temp_str
  2276     0472                     l2039:
  2277                           
  2278                           ;micro_oven.c: 89:     temp_str[1] = (char)(((*temp / 10) % 10) + '0');
  2279     0472  300A               	movlw	10
  2280     0473  00A0               	movwf	___lwmod@divisor
  2281     0474  3000               	movlw	0
  2282     0475  00A1               	movwf	___lwmod@divisor+1
  2283     0476  300A               	movlw	10
  2284     0477  00F2               	movwf	___lwdiv@divisor
  2285     0478  3000               	movlw	0
  2286     0479  00F3               	movwf	___lwdiv@divisor+1
  2287     047A  0825               	movf	set_temp@temp,w
  2288     047B  0084               	movwf	4
  2289     047C  1383               	bcf	3,7	;select IRP bank0
  2290     047D  0800               	movf	0,w
  2291     047E  00F4               	movwf	___lwdiv@dividend
  2292     047F  0A84               	incf	4,f
  2293     0480  0800               	movf	0,w
  2294     0481  00F5               	movwf	___lwdiv@dividend+1
  2295     0482  120A  118A  26CD  120A  118A  	fcall	___lwdiv
  2296     0487  0873               	movf	?___lwdiv+1,w
  2297     0488  1283               	bcf	3,5	;RP0=0, select bank0
  2298     0489  1303               	bcf	3,6	;RP1=0, select bank0
  2299     048A  00A3               	movwf	___lwmod@dividend+1
  2300     048B  0872               	movf	?___lwdiv,w
  2301     048C  00A2               	movwf	___lwmod@dividend
  2302     048D  120A  118A  2751  120A  118A  	fcall	___lwmod
  2303     0492  1283               	bcf	3,5	;RP0=0, select bank0
  2304     0493  1303               	bcf	3,6	;RP1=0, select bank0
  2305     0494  0820               	movf	?___lwmod,w
  2306     0495  3E30               	addlw	48
  2307     0496  00A9               	movwf	set_temp@temp_str+1
  2308     0497                     l2041:
  2309                           
  2310                           ;micro_oven.c: 90:     temp_str[2] = (char)((*temp % 10) + '0');
  2311     0497  300A               	movlw	10
  2312     0498  00A0               	movwf	___lwmod@divisor
  2313     0499  3000               	movlw	0
  2314     049A  00A1               	movwf	___lwmod@divisor+1
  2315     049B  0825               	movf	set_temp@temp,w
  2316     049C  0084               	movwf	4
  2317     049D  1383               	bcf	3,7	;select IRP bank0
  2318     049E  0800               	movf	0,w
  2319     049F  00A2               	movwf	___lwmod@dividend
  2320     04A0  0A84               	incf	4,f
  2321     04A1  0800               	movf	0,w
  2322     04A2  00A3               	movwf	___lwmod@dividend+1
  2323     04A3  120A  118A  2751  120A  118A  	fcall	___lwmod
  2324     04A8  1283               	bcf	3,5	;RP0=0, select bank0
  2325     04A9  1303               	bcf	3,6	;RP1=0, select bank0
  2326     04AA  0820               	movf	?___lwmod,w
  2327     04AB  3E30               	addlw	48
  2328     04AC  00AA               	movwf	set_temp@temp_str+2
  2329     04AD                     l2043:
  2330                           
  2331                           ;micro_oven.c: 91:     temp_str[3] = 'C';
  2332     04AD  3043               	movlw	67
  2333     04AE  00AB               	movwf	set_temp@temp_str+3
  2334     04AF                     l2045:
  2335                           
  2336                           ;micro_oven.c: 92:     temp_str[4] = '\0';
  2337     04AF  01AC               	clrf	set_temp@temp_str+4
  2338     04B0                     l2047:
  2339                           
  2340                           ;micro_oven.c: 93:     clcd_print(temp_str, ((unsigned char)(0xC0 + 8)));
  2341     04B0  3028               	movlw	(low (set_temp@temp_str| 0))& (0+255)
  2342     04B1  00A0               	movwf	clcd_print@str
  2343     04B2  3000               	movlw	0
  2344     04B3  00A1               	movwf	clcd_print@str+1
  2345     04B4  30C8               	movlw	200
  2346     04B5  00A2               	movwf	clcd_print@addr
  2347     04B6  120A  118A  21C1  120A  118A  	fcall	_clcd_print
  2348     04BB                     l176:
  2349     04BB  0008               	return
  2350     04BC                     __end_of_set_temp:
  2351                           
  2352                           	psect	text3
  2353     0FB3                     __ptext3:	
  2354 ;; *************** function ___wmul *****************
  2355 ;; Defined at:
  2356 ;;		line 15 in file "D:\USEME FOLDER\EMERTXE\pic\sources\c99\common\Umul16.c"
  2357 ;; Parameters:    Size  Location     Type
  2358 ;;  multiplier      2    2[COMMON] unsigned int 
  2359 ;;  multiplicand    2    4[COMMON] unsigned int 
  2360 ;; Auto vars:     Size  Location     Type
  2361 ;;  product         2    6[COMMON] unsigned int 
  2362 ;; Return value:  Size  Location     Type
  2363 ;;                  2    2[COMMON] unsigned int 
  2364 ;; Registers used:
  2365 ;;		wreg, status,2, status,0
  2366 ;; Tracked objects:
  2367 ;;		On entry : 0/0
  2368 ;;		On exit  : 0/0
  2369 ;;		Unchanged: 0/0
  2370 ;; Data sizes:     COMMON   BANK0   BANK1   BANK3   BANK2
  2371 ;;      Params:         4       0       0       0       0
  2372 ;;      Locals:         2       0       0       0       0
  2373 ;;      Temps:          0       0       0       0       0
  2374 ;;      Totals:         6       0       0       0       0
  2375 ;;Total ram usage:        6 bytes
  2376 ;; Hardware stack levels used: 1
  2377 ;; Hardware stack levels required when called: 1
  2378 ;; This function calls:
  2379 ;;		Nothing
  2380 ;; This function is called by:
  2381 ;;		_set_time
  2382 ;;		_set_temp
  2383 ;; This function uses a non-reentrant model
  2384 ;;
  2385                           
  2386     0FB3                     ___wmul:	
  2387                           ;psect for function ___wmul
  2388                           
  2389     0FB3                     l1501:	
  2390                           ;incstack = 0
  2391                           ; Regs used in ___wmul: [wreg+status,2+status,0]
  2392                           
  2393     0FB3  01F6               	clrf	___wmul@product
  2394     0FB4  01F7               	clrf	___wmul@product+1
  2395     0FB5                     l1503:
  2396     0FB5  1C72               	btfss	___wmul@multiplier,0
  2397     0FB6  2FB8               	goto	u891
  2398     0FB7  2FB9               	goto	u890
  2399     0FB8                     u891:
  2400     0FB8  2FBF               	goto	l357
  2401     0FB9                     u890:
  2402     0FB9                     l1505:
  2403     0FB9  0874               	movf	___wmul@multiplicand,w
  2404     0FBA  07F6               	addwf	___wmul@product,f
  2405     0FBB  1803               	skipnc
  2406     0FBC  0AF7               	incf	___wmul@product+1,f
  2407     0FBD  0875               	movf	___wmul@multiplicand+1,w
  2408     0FBE  07F7               	addwf	___wmul@product+1,f
  2409     0FBF                     l357:
  2410     0FBF  3001               	movlw	1
  2411     0FC0                     u905:
  2412     0FC0  1003               	clrc
  2413     0FC1  0DF4               	rlf	___wmul@multiplicand,f
  2414     0FC2  0DF5               	rlf	___wmul@multiplicand+1,f
  2415     0FC3  3EFF               	addlw	-1
  2416     0FC4  1D03               	skipz
  2417     0FC5  2FC0               	goto	u905
  2418     0FC6                     l1507:
  2419     0FC6  3001               	movlw	1
  2420     0FC7                     u915:
  2421     0FC7  1003               	clrc
  2422     0FC8  0CF3               	rrf	___wmul@multiplier+1,f
  2423     0FC9  0CF2               	rrf	___wmul@multiplier,f
  2424     0FCA  3EFF               	addlw	-1
  2425     0FCB  1D03               	skipz
  2426     0FCC  2FC7               	goto	u915
  2427     0FCD                     l1509:
  2428     0FCD  0872               	movf	___wmul@multiplier,w
  2429     0FCE  0473               	iorwf	___wmul@multiplier+1,w
  2430     0FCF  1D03               	btfss	3,2
  2431     0FD0  2FD2               	goto	u921
  2432     0FD1  2FD3               	goto	u920
  2433     0FD2                     u921:
  2434     0FD2  2FB5               	goto	l1503
  2435     0FD3                     u920:
  2436     0FD3                     l1511:
  2437     0FD3  0877               	movf	___wmul@product+1,w
  2438     0FD4  00F3               	movwf	?___wmul+1
  2439     0FD5  0876               	movf	___wmul@product,w
  2440     0FD6  00F2               	movwf	?___wmul
  2441     0FD7                     l359:
  2442     0FD7  0008               	return
  2443     0FD8                     __end_of___wmul:
  2444                           
  2445                           	psect	text4
  2446     0F90                     __ptext4:	
  2447 ;; *************** function _read_matrix_keypad *****************
  2448 ;; Defined at:
  2449 ;;		line 43 in file "matrix_keypad.c"
  2450 ;; Parameters:    Size  Location     Type
  2451 ;;  mode            1    wreg     unsigned char 
  2452 ;; Auto vars:     Size  Location     Type
  2453 ;;  mode            1    4[COMMON] unsigned char 
  2454 ;;  key             1    5[COMMON] unsigned char 
  2455 ;; Return value:  Size  Location     Type
  2456 ;;                  1    wreg      unsigned char 
  2457 ;; Registers used:
  2458 ;;		wreg, status,2, status,0, pclath, cstack
  2459 ;; Tracked objects:
  2460 ;;		On entry : 0/0
  2461 ;;		On exit  : 0/0
  2462 ;;		Unchanged: 0/0
  2463 ;; Data sizes:     COMMON   BANK0   BANK1   BANK3   BANK2
  2464 ;;      Params:         0       0       0       0       0
  2465 ;;      Locals:         2       0       0       0       0
  2466 ;;      Temps:          0       0       0       0       0
  2467 ;;      Totals:         2       0       0       0       0
  2468 ;;Total ram usage:        2 bytes
  2469 ;; Hardware stack levels used: 1
  2470 ;; Hardware stack levels required when called: 2
  2471 ;; This function calls:
  2472 ;;		_scan_keypad
  2473 ;; This function is called by:
  2474 ;;		_main
  2475 ;; This function uses a non-reentrant model
  2476 ;;
  2477                           
  2478     0F90                     _read_matrix_keypad:	
  2479                           ;psect for function _read_matrix_keypad
  2480                           
  2481                           
  2482                           ;incstack = 0
  2483                           ; Regs used in _read_matrix_keypad: [wreg+status,2+status,0+pclath+cstack]
  2484                           ;read_matrix_keypad@mode stored from wreg
  2485     0F90  00F4               	movwf	read_matrix_keypad@mode
  2486     0F91                     l1613:
  2487                           
  2488                           ;matrix_keypad.c: 44:     static unsigned char once = 1;;matrix_keypad.c: 45:     unsign
      +                          ed char key = scan_keypad();
  2489     0F91  120A  118A  24BC  120A  158A  	fcall	_scan_keypad
  2490     0F96  00F5               	movwf	read_matrix_keypad@key
  2491     0F97                     l1615:
  2492                           
  2493                           ;matrix_keypad.c: 46:     if (mode == 0) return key;
  2494     0F97  0874               	movf	read_matrix_keypad@mode,w
  2495     0F98  1D03               	btfss	3,2
  2496     0F99  2F9B               	goto	u1081
  2497     0F9A  2F9C               	goto	u1080
  2498     0F9B                     u1081:
  2499     0F9B  2F9E               	goto	l1623
  2500     0F9C                     u1080:
  2501     0F9C                     l1617:
  2502     0F9C  0875               	movf	read_matrix_keypad@key,w
  2503     0F9D  2FB2               	goto	l235
  2504     0F9E                     l1623:
  2505                           
  2506                           ;matrix_keypad.c: 48:         if ((key != 0xFF) && once) {
  2507     0F9E  0A75               	incf	read_matrix_keypad@key,w
  2508     0F9F  1903               	btfsc	3,2
  2509     0FA0  2FA2               	goto	u1091
  2510     0FA1  2FA3               	goto	u1090
  2511     0FA2                     u1091:
  2512     0FA2  2FAA               	goto	l1635
  2513     0FA3                     u1090:
  2514     0FA3                     l1625:
  2515     0FA3  087B               	movf	read_matrix_keypad@once,w
  2516     0FA4  1903               	btfsc	3,2
  2517     0FA5  2FA7               	goto	u1101
  2518     0FA6  2FA8               	goto	u1100
  2519     0FA7                     u1101:
  2520     0FA7  2FAA               	goto	l1635
  2521     0FA8                     u1100:
  2522     0FA8                     l1627:
  2523                           
  2524                           ;matrix_keypad.c: 49:             once = 0;
  2525     0FA8  01FB               	clrf	read_matrix_keypad@once
  2526     0FA9  2F9C               	goto	l1617
  2527     0FAA                     l1635:
  2528     0FAA  0A75               	incf	read_matrix_keypad@key,w
  2529     0FAB  1D03               	btfss	3,2
  2530     0FAC  2FAE               	goto	u1111
  2531     0FAD  2FAF               	goto	u1110
  2532     0FAE                     u1111:
  2533     0FAE  2FB1               	goto	l1639
  2534     0FAF                     u1110:
  2535     0FAF                     l1637:
  2536                           
  2537                           ;matrix_keypad.c: 52:             once = 1;
  2538     0FAF  3001               	movlw	1
  2539     0FB0  00FB               	movwf	read_matrix_keypad@once
  2540     0FB1                     l1639:
  2541                           
  2542                           ;matrix_keypad.c: 55:     return 0xFF;
  2543     0FB1  30FF               	movlw	255
  2544     0FB2                     l235:
  2545     0FB2  0008               	return
  2546     0FB3                     __end_of_read_matrix_keypad:
  2547                           
  2548                           	psect	text5
  2549     04BC                     __ptext5:	
  2550 ;; *************** function _scan_keypad *****************
  2551 ;; Defined at:
  2552 ;;		line 14 in file "matrix_keypad.c"
  2553 ;; Parameters:    Size  Location     Type
  2554 ;;		None
  2555 ;; Auto vars:     Size  Location     Type
  2556 ;;  i               2    2[COMMON] int 
  2557 ;; Return value:  Size  Location     Type
  2558 ;;                  1    wreg      unsigned char 
  2559 ;; Registers used:
  2560 ;;		wreg, status,2, status,0
  2561 ;; Tracked objects:
  2562 ;;		On entry : 0/0
  2563 ;;		On exit  : 0/0
  2564 ;;		Unchanged: 0/0
  2565 ;; Data sizes:     COMMON   BANK0   BANK1   BANK3   BANK2
  2566 ;;      Params:         0       0       0       0       0
  2567 ;;      Locals:         2       0       0       0       0
  2568 ;;      Temps:          0       0       0       0       0
  2569 ;;      Totals:         2       0       0       0       0
  2570 ;;Total ram usage:        2 bytes
  2571 ;; Hardware stack levels used: 1
  2572 ;; Hardware stack levels required when called: 1
  2573 ;; This function calls:
  2574 ;;		Nothing
  2575 ;; This function is called by:
  2576 ;;		_read_matrix_keypad
  2577 ;; This function uses a non-reentrant model
  2578 ;;
  2579                           
  2580     04BC                     _scan_keypad:	
  2581                           ;psect for function _scan_keypad
  2582                           
  2583     04BC                     l1431:	
  2584                           ;incstack = 0
  2585                           ; Regs used in _scan_keypad: [wreg+status,2+status,0]
  2586                           
  2587                           
  2588                           ;matrix_keypad.c: 15:     int i;;matrix_keypad.c: 16:     RD3 = 0; RD2 = 1; RD1 = 1; RD0
      +                           = 1;
  2589     04BC  1283               	bcf	3,5	;RP0=0, select bank0
  2590     04BD  1303               	bcf	3,6	;RP1=0, select bank0
  2591     04BE  1188               	bcf	8,3	;volatile
  2592     04BF  1508               	bsf	8,2	;volatile
  2593     04C0  1488               	bsf	8,1	;volatile
  2594     04C1  1408               	bsf	8,0	;volatile
  2595     04C2                     l1433:
  2596                           
  2597                           ;matrix_keypad.c: 17:     for (i = 100; i--; );
  2598     04C2  3064               	movlw	100
  2599     04C3  00F2               	movwf	scan_keypad@i
  2600     04C4  3000               	movlw	0
  2601     04C5  00F3               	movwf	scan_keypad@i+1
  2602     04C6                     l1435:
  2603     04C6  30FF               	movlw	255
  2604     04C7  07F2               	addwf	scan_keypad@i,f
  2605     04C8  1803               	skipnc
  2606     04C9  0AF3               	incf	scan_keypad@i+1,f
  2607     04CA  30FF               	movlw	255
  2608     04CB  07F3               	addwf	scan_keypad@i+1,f
  2609     04CC  0A72               	incf	scan_keypad@i,w
  2610     04CD  1D03               	skipz
  2611     04CE  2CD3               	goto	u731
  2612     04CF  0A73               	incf	scan_keypad@i+1,w
  2613     04D0  1D03               	btfss	3,2
  2614     04D1  2CD3               	goto	u731
  2615     04D2  2CD4               	goto	u730
  2616     04D3                     u731:
  2617     04D3  2CC6               	goto	l1435
  2618     04D4                     u730:
  2619     04D4                     l207:
  2620                           
  2621                           ;matrix_keypad.c: 18:     if (RB0 == 0) return 1;
  2622     04D4  1283               	bcf	3,5	;RP0=0, select bank0
  2623     04D5  1303               	bcf	3,6	;RP1=0, select bank0
  2624     04D6  1806               	btfsc	6,0	;volatile
  2625     04D7  2CD9               	goto	u741
  2626     04D8  2CDA               	goto	u740
  2627     04D9                     u741:
  2628     04D9  2CDC               	goto	l208
  2629     04DA                     u740:
  2630     04DA                     l1437:
  2631     04DA  3001               	movlw	1
  2632     04DB  2D67               	goto	l209
  2633     04DC                     l208:
  2634                           
  2635                           ;matrix_keypad.c: 19:     if (RB1 == 0) return 2;
  2636     04DC  1886               	btfsc	6,1	;volatile
  2637     04DD  2CDF               	goto	u751
  2638     04DE  2CE0               	goto	u750
  2639     04DF                     u751:
  2640     04DF  2CE2               	goto	l210
  2641     04E0                     u750:
  2642     04E0                     l1441:
  2643     04E0  3002               	movlw	2
  2644     04E1  2D67               	goto	l209
  2645     04E2                     l210:
  2646                           
  2647                           ;matrix_keypad.c: 20:     if (RB2 == 0) return 3;
  2648     04E2  1906               	btfsc	6,2	;volatile
  2649     04E3  2CE5               	goto	u761
  2650     04E4  2CE6               	goto	u760
  2651     04E5                     u761:
  2652     04E5  2CE8               	goto	l211
  2653     04E6                     u760:
  2654     04E6                     l1445:
  2655     04E6  3003               	movlw	3
  2656     04E7  2D67               	goto	l209
  2657     04E8                     l211:
  2658                           
  2659                           ;matrix_keypad.c: 22:     RD3 = 1; RD2 = 0; RD1 = 1; RD0 = 1;
  2660     04E8  1588               	bsf	8,3	;volatile
  2661     04E9  1108               	bcf	8,2	;volatile
  2662     04EA  1488               	bsf	8,1	;volatile
  2663     04EB  1408               	bsf	8,0	;volatile
  2664     04EC                     l1449:
  2665                           
  2666                           ;matrix_keypad.c: 23:     for (i = 100; i--; );
  2667     04EC  3064               	movlw	100
  2668     04ED  00F2               	movwf	scan_keypad@i
  2669     04EE  3000               	movlw	0
  2670     04EF  00F3               	movwf	scan_keypad@i+1
  2671     04F0                     l1451:
  2672     04F0  30FF               	movlw	255
  2673     04F1  07F2               	addwf	scan_keypad@i,f
  2674     04F2  1803               	skipnc
  2675     04F3  0AF3               	incf	scan_keypad@i+1,f
  2676     04F4  30FF               	movlw	255
  2677     04F5  07F3               	addwf	scan_keypad@i+1,f
  2678     04F6  0A72               	incf	scan_keypad@i,w
  2679     04F7  1D03               	skipz
  2680     04F8  2CFD               	goto	u771
  2681     04F9  0A73               	incf	scan_keypad@i+1,w
  2682     04FA  1D03               	btfss	3,2
  2683     04FB  2CFD               	goto	u771
  2684     04FC  2CFE               	goto	u770
  2685     04FD                     u771:
  2686     04FD  2CF0               	goto	l1451
  2687     04FE                     u770:
  2688     04FE                     l214:
  2689                           
  2690                           ;matrix_keypad.c: 24:     if (RB0 == 0) return 4;
  2691     04FE  1283               	bcf	3,5	;RP0=0, select bank0
  2692     04FF  1303               	bcf	3,6	;RP1=0, select bank0
  2693     0500  1806               	btfsc	6,0	;volatile
  2694     0501  2D03               	goto	u781
  2695     0502  2D04               	goto	u780
  2696     0503                     u781:
  2697     0503  2D06               	goto	l215
  2698     0504                     u780:
  2699     0504                     l1453:
  2700     0504  3004               	movlw	4
  2701     0505  2D67               	goto	l209
  2702     0506                     l215:
  2703                           
  2704                           ;matrix_keypad.c: 25:     if (RB1 == 0) return 5;
  2705     0506  1886               	btfsc	6,1	;volatile
  2706     0507  2D09               	goto	u791
  2707     0508  2D0A               	goto	u790
  2708     0509                     u791:
  2709     0509  2D0C               	goto	l216
  2710     050A                     u790:
  2711     050A                     l1457:
  2712     050A  3005               	movlw	5
  2713     050B  2D67               	goto	l209
  2714     050C                     l216:
  2715                           
  2716                           ;matrix_keypad.c: 26:     if (RB2 == 0) return 6;
  2717     050C  1906               	btfsc	6,2	;volatile
  2718     050D  2D0F               	goto	u801
  2719     050E  2D10               	goto	u800
  2720     050F                     u801:
  2721     050F  2D12               	goto	l217
  2722     0510                     u800:
  2723     0510                     l1461:
  2724     0510  3006               	movlw	6
  2725     0511  2D67               	goto	l209
  2726     0512                     l217:
  2727                           
  2728                           ;matrix_keypad.c: 28:     RD3 = 1; RD2 = 1; RD1 = 0; RD0 = 1;
  2729     0512  1588               	bsf	8,3	;volatile
  2730     0513  1508               	bsf	8,2	;volatile
  2731     0514  1088               	bcf	8,1	;volatile
  2732     0515  1408               	bsf	8,0	;volatile
  2733     0516                     l1465:
  2734                           
  2735                           ;matrix_keypad.c: 29:     for (i = 100; i--; );
  2736     0516  3064               	movlw	100
  2737     0517  00F2               	movwf	scan_keypad@i
  2738     0518  3000               	movlw	0
  2739     0519  00F3               	movwf	scan_keypad@i+1
  2740     051A                     l1467:
  2741     051A  30FF               	movlw	255
  2742     051B  07F2               	addwf	scan_keypad@i,f
  2743     051C  1803               	skipnc
  2744     051D  0AF3               	incf	scan_keypad@i+1,f
  2745     051E  30FF               	movlw	255
  2746     051F  07F3               	addwf	scan_keypad@i+1,f
  2747     0520  0A72               	incf	scan_keypad@i,w
  2748     0521  1D03               	skipz
  2749     0522  2D27               	goto	u811
  2750     0523  0A73               	incf	scan_keypad@i+1,w
  2751     0524  1D03               	btfss	3,2
  2752     0525  2D27               	goto	u811
  2753     0526  2D28               	goto	u810
  2754     0527                     u811:
  2755     0527  2D1A               	goto	l1467
  2756     0528                     u810:
  2757     0528                     l220:
  2758                           
  2759                           ;matrix_keypad.c: 30:     if (RB0 == 0) return 7;
  2760     0528  1283               	bcf	3,5	;RP0=0, select bank0
  2761     0529  1303               	bcf	3,6	;RP1=0, select bank0
  2762     052A  1806               	btfsc	6,0	;volatile
  2763     052B  2D2D               	goto	u821
  2764     052C  2D2E               	goto	u820
  2765     052D                     u821:
  2766     052D  2D30               	goto	l221
  2767     052E                     u820:
  2768     052E                     l1469:
  2769     052E  3007               	movlw	7
  2770     052F  2D67               	goto	l209
  2771     0530                     l221:
  2772                           
  2773                           ;matrix_keypad.c: 31:     if (RB1 == 0) return 8;
  2774     0530  1886               	btfsc	6,1	;volatile
  2775     0531  2D33               	goto	u831
  2776     0532  2D34               	goto	u830
  2777     0533                     u831:
  2778     0533  2D36               	goto	l222
  2779     0534                     u830:
  2780     0534                     l1473:
  2781     0534  3008               	movlw	8
  2782     0535  2D67               	goto	l209
  2783     0536                     l222:
  2784                           
  2785                           ;matrix_keypad.c: 32:     if (RB2 == 0) return 9;
  2786     0536  1906               	btfsc	6,2	;volatile
  2787     0537  2D39               	goto	u841
  2788     0538  2D3A               	goto	u840
  2789     0539                     u841:
  2790     0539  2D3C               	goto	l223
  2791     053A                     u840:
  2792     053A                     l1477:
  2793     053A  3009               	movlw	9
  2794     053B  2D67               	goto	l209
  2795     053C                     l223:
  2796                           
  2797                           ;matrix_keypad.c: 34:     RD3 = 1; RD2 = 1; RD1 = 1; RD0 = 0;
  2798     053C  1588               	bsf	8,3	;volatile
  2799     053D  1508               	bsf	8,2	;volatile
  2800     053E  1488               	bsf	8,1	;volatile
  2801     053F  1008               	bcf	8,0	;volatile
  2802     0540                     l1481:
  2803                           
  2804                           ;matrix_keypad.c: 35:     for (i = 100; i--; );
  2805     0540  3064               	movlw	100
  2806     0541  00F2               	movwf	scan_keypad@i
  2807     0542  3000               	movlw	0
  2808     0543  00F3               	movwf	scan_keypad@i+1
  2809     0544                     l1483:
  2810     0544  30FF               	movlw	255
  2811     0545  07F2               	addwf	scan_keypad@i,f
  2812     0546  1803               	skipnc
  2813     0547  0AF3               	incf	scan_keypad@i+1,f
  2814     0548  30FF               	movlw	255
  2815     0549  07F3               	addwf	scan_keypad@i+1,f
  2816     054A  0A72               	incf	scan_keypad@i,w
  2817     054B  1D03               	skipz
  2818     054C  2D51               	goto	u851
  2819     054D  0A73               	incf	scan_keypad@i+1,w
  2820     054E  1D03               	btfss	3,2
  2821     054F  2D51               	goto	u851
  2822     0550  2D52               	goto	u850
  2823     0551                     u851:
  2824     0551  2D44               	goto	l1483
  2825     0552                     u850:
  2826     0552                     l226:
  2827                           
  2828                           ;matrix_keypad.c: 36:     if (RB0 == 0) return '*';
  2829     0552  1283               	bcf	3,5	;RP0=0, select bank0
  2830     0553  1303               	bcf	3,6	;RP1=0, select bank0
  2831     0554  1806               	btfsc	6,0	;volatile
  2832     0555  2D57               	goto	u861
  2833     0556  2D58               	goto	u860
  2834     0557                     u861:
  2835     0557  2D5A               	goto	l227
  2836     0558                     u860:
  2837     0558                     l1485:
  2838     0558  302A               	movlw	42
  2839     0559  2D67               	goto	l209
  2840     055A                     l227:
  2841                           
  2842                           ;matrix_keypad.c: 37:     if (RB1 == 0) return 0;
  2843     055A  1886               	btfsc	6,1	;volatile
  2844     055B  2D5D               	goto	u871
  2845     055C  2D5E               	goto	u870
  2846     055D                     u871:
  2847     055D  2D60               	goto	l228
  2848     055E                     u870:
  2849     055E                     l1489:
  2850     055E  3000               	movlw	0
  2851     055F  2D67               	goto	l209
  2852     0560                     l228:
  2853                           
  2854                           ;matrix_keypad.c: 38:     if (RB2 == 0) return '#';
  2855     0560  1906               	btfsc	6,2	;volatile
  2856     0561  2D63               	goto	u881
  2857     0562  2D64               	goto	u880
  2858     0563                     u881:
  2859     0563  2D66               	goto	l1497
  2860     0564                     u880:
  2861     0564                     l1493:
  2862     0564  3023               	movlw	35
  2863     0565  2D67               	goto	l209
  2864     0566                     l1497:
  2865                           
  2866                           ;matrix_keypad.c: 40:     return 0xFF;
  2867     0566  30FF               	movlw	255
  2868     0567                     l209:
  2869     0567  0008               	return
  2870     0568                     __end_of_scan_keypad:
  2871                           
  2872                           	psect	text6
  2873     05F5                     __ptext6:	
  2874 ;; *************** function _power_on_screen *****************
  2875 ;; Defined at:
  2876 ;;		line 3 in file "micro_oven.c"
  2877 ;; Parameters:    Size  Location     Type
  2878 ;;		None
  2879 ;; Auto vars:     Size  Location     Type
  2880 ;;  i               1    7[BANK0 ] unsigned char 
  2881 ;;  i               1    6[BANK0 ] unsigned char 
  2882 ;; Return value:  Size  Location     Type
  2883 ;;                  1    wreg      void 
  2884 ;; Registers used:
  2885 ;;		wreg, fsr0l, fsr0h, status,2, status,0, pclath, btemp1, cstack
  2886 ;; Tracked objects:
  2887 ;;		On entry : 0/0
  2888 ;;		On exit  : 0/0
  2889 ;;		Unchanged: 0/0
  2890 ;; Data sizes:     COMMON   BANK0   BANK1   BANK3   BANK2
  2891 ;;      Params:         0       0       0       0       0
  2892 ;;      Locals:         0       2       0       0       0
  2893 ;;      Temps:          0       3       0       0       0
  2894 ;;      Totals:         0       5       0       0       0
  2895 ;;Total ram usage:        5 bytes
  2896 ;; Hardware stack levels used: 1
  2897 ;; Hardware stack levels required when called: 3
  2898 ;; This function calls:
  2899 ;;		_clcd_print
  2900 ;;		_clcd_putch
  2901 ;;		_clear_screen
  2902 ;; This function is called by:
  2903 ;;		_main
  2904 ;; This function uses a non-reentrant model
  2905 ;;
  2906                           
  2907     05F5                     _power_on_screen:	
  2908                           ;psect for function _power_on_screen
  2909                           
  2910     05F5                     l1579:	
  2911                           ;incstack = 0
  2912                           ; Regs used in _power_on_screen: [wreg-fsr0h+status,2+status,0+pclath+btemp1+cstack]
  2913                           
  2914                           
  2915                           ;micro_oven.c: 4:     for (unsigned char i = 0; i < 16; i++) {
  2916     05F5  1283               	bcf	3,5	;RP0=0, select bank0
  2917     05F6  1303               	bcf	3,6	;RP1=0, select bank0
  2918     05F7  01A6               	clrf	power_on_screen@i
  2919     05F8                     l1585:
  2920                           
  2921                           ;micro_oven.c: 5:         clcd_putch((const char)0xFF, ((unsigned char)(0x80 + i)));
  2922     05F8  0826               	movf	power_on_screen@i,w
  2923     05F9  3E80               	addlw	128
  2924     05FA  00F6               	movwf	clcd_putch@addr
  2925     05FB  30FF               	movlw	255
  2926     05FC  120A  158A  2750  120A  118A  	fcall	_clcd_putch
  2927     0601                     l1587:
  2928                           
  2929                           ;micro_oven.c: 6:         _delay((unsigned long)((50)*(20000000/4000.0)));
  2930     0601  3002               	movlw	2
  2931     0602  1283               	bcf	3,5	;RP0=0, select bank0
  2932     0603  1303               	bcf	3,6	;RP1=0, select bank0
  2933     0604  00A5               	movwf	??_power_on_screen+2
  2934     0605  3045               	movlw	69
  2935     0606  00A4               	movwf	??_power_on_screen+1
  2936     0607  30A9               	movlw	169
  2937     0608  00A3               	movwf	??_power_on_screen
  2938     0609                     u1837:
  2939     0609  0BA3               	decfsz	??_power_on_screen,f
  2940     060A  2E09               	goto	u1837
  2941     060B  0BA4               	decfsz	??_power_on_screen+1,f
  2942     060C  2E09               	goto	u1837
  2943     060D  0BA5               	decfsz	??_power_on_screen+2,f
  2944     060E  2E09               	goto	u1837
  2945     060F                     l1589:
  2946                           
  2947                           ;micro_oven.c: 7:     }
  2948     060F  3001               	movlw	1
  2949     0610  1283               	bcf	3,5	;RP0=0, select bank0
  2950     0611  1303               	bcf	3,6	;RP1=0, select bank0
  2951     0612  07A6               	addwf	power_on_screen@i,f
  2952     0613                     l1591:
  2953     0613  3010               	movlw	16
  2954     0614  0226               	subwf	power_on_screen@i,w
  2955     0615  1C03               	skipc
  2956     0616  2E18               	goto	u1061
  2957     0617  2E19               	goto	u1060
  2958     0618                     u1061:
  2959     0618  2DF8               	goto	l1585
  2960     0619                     u1060:
  2961     0619                     l1593:
  2962                           
  2963                           ;micro_oven.c: 8:     clcd_print("Powering ON", ((unsigned char)(0xC0 + 2)));
  2964     0619  30A1               	movlw	(low ((STR_7-__stringbase)| (0+32768)))& (0+255)
  2965     061A  00A0               	movwf	clcd_print@str
  2966     061B  3080               	movlw	128
  2967     061C  00A1               	movwf	clcd_print@str+1
  2968     061D  30C2               	movlw	194
  2969     061E  00A2               	movwf	clcd_print@addr
  2970     061F  120A  118A  21C1  120A  118A  	fcall	_clcd_print
  2971                           
  2972                           ;micro_oven.c: 9:     clcd_print("Microwave Oven", ((unsigned char)(0x90 + 1)));
  2973     0624  3032               	movlw	(low ((STR_8-__stringbase)| (0+32768)))& (0+255)
  2974     0625  1283               	bcf	3,5	;RP0=0, select bank0
  2975     0626  1303               	bcf	3,6	;RP1=0, select bank0
  2976     0627  00A0               	movwf	clcd_print@str
  2977     0628  3080               	movlw	128
  2978     0629  00A1               	movwf	clcd_print@str+1
  2979     062A  3091               	movlw	145
  2980     062B  00A2               	movwf	clcd_print@addr
  2981     062C  120A  118A  21C1  120A  118A  	fcall	_clcd_print
  2982     0631                     l1595:
  2983                           
  2984                           ;micro_oven.c: 10:     for (unsigned char i = 0; i < 16; i++) {
  2985     0631  1283               	bcf	3,5	;RP0=0, select bank0
  2986     0632  1303               	bcf	3,6	;RP1=0, select bank0
  2987     0633  01A7               	clrf	power_on_screen@i_147
  2988     0634                     l1601:
  2989                           
  2990                           ;micro_oven.c: 11:         clcd_putch((const char)0xFF, ((unsigned char)(0xD0 + i)));
  2991     0634  0827               	movf	power_on_screen@i_147,w
  2992     0635  3ED0               	addlw	208
  2993     0636  00F6               	movwf	clcd_putch@addr
  2994     0637  30FF               	movlw	255
  2995     0638  120A  158A  2750  120A  118A  	fcall	_clcd_putch
  2996     063D                     l1603:
  2997                           
  2998                           ;micro_oven.c: 12:         _delay((unsigned long)((50)*(20000000/4000.0)));
  2999     063D  3002               	movlw	2
  3000     063E  1283               	bcf	3,5	;RP0=0, select bank0
  3001     063F  1303               	bcf	3,6	;RP1=0, select bank0
  3002     0640  00A5               	movwf	??_power_on_screen+2
  3003     0641  3045               	movlw	69
  3004     0642  00A4               	movwf	??_power_on_screen+1
  3005     0643  30A9               	movlw	169
  3006     0644  00A3               	movwf	??_power_on_screen
  3007     0645                     u1847:
  3008     0645  0BA3               	decfsz	??_power_on_screen,f
  3009     0646  2E45               	goto	u1847
  3010     0647  0BA4               	decfsz	??_power_on_screen+1,f
  3011     0648  2E45               	goto	u1847
  3012     0649  0BA5               	decfsz	??_power_on_screen+2,f
  3013     064A  2E45               	goto	u1847
  3014     064B                     l1605:
  3015                           
  3016                           ;micro_oven.c: 13:     }
  3017     064B  3001               	movlw	1
  3018     064C  1283               	bcf	3,5	;RP0=0, select bank0
  3019     064D  1303               	bcf	3,6	;RP1=0, select bank0
  3020     064E  07A7               	addwf	power_on_screen@i_147,f
  3021     064F                     l1607:
  3022     064F  3010               	movlw	16
  3023     0650  0227               	subwf	power_on_screen@i_147,w
  3024     0651  1C03               	skipc
  3025     0652  2E54               	goto	u1071
  3026     0653  2E55               	goto	u1070
  3027     0654                     u1071:
  3028     0654  2E34               	goto	l1601
  3029     0655                     u1070:
  3030     0655                     l1609:
  3031                           
  3032                           ;micro_oven.c: 14:     _delay((unsigned long)((1500)*(20000000/4000.0)));
  3033     0655  3027               	movlw	39
  3034     0656  1283               	bcf	3,5	;RP0=0, select bank0
  3035     0657  1303               	bcf	3,6	;RP1=0, select bank0
  3036     0658  00A5               	movwf	??_power_on_screen+2
  3037     0659  300D               	movlw	13
  3038     065A  00A4               	movwf	??_power_on_screen+1
  3039     065B  3025               	movlw	37
  3040     065C  00A3               	movwf	??_power_on_screen
  3041     065D                     u1857:
  3042     065D  0BA3               	decfsz	??_power_on_screen,f
  3043     065E  2E5D               	goto	u1857
  3044     065F  0BA4               	decfsz	??_power_on_screen+1,f
  3045     0660  2E5D               	goto	u1857
  3046     0661  0BA5               	decfsz	??_power_on_screen+2,f
  3047     0662  2E5D               	goto	u1857
  3048     0663  2E64               	nop2
  3049     0664                     l1611:
  3050                           
  3051                           ;micro_oven.c: 15:     clear_screen();
  3052     0664  120A  158A  2761  120A  118A  	fcall	_clear_screen
  3053     0669                     l139:
  3054     0669  0008               	return
  3055     066A                     __end_of_power_on_screen:
  3056                           
  3057                           	psect	text7
  3058     0F61                     __ptext7:	
  3059 ;; *************** function _clear_screen *****************
  3060 ;; Defined at:
  3061 ;;		line 18 in file "micro_oven.c"
  3062 ;; Parameters:    Size  Location     Type
  3063 ;;		None
  3064 ;; Auto vars:     Size  Location     Type
  3065 ;;		None
  3066 ;; Return value:  Size  Location     Type
  3067 ;;                  1    wreg      void 
  3068 ;; Registers used:
  3069 ;;		wreg, status,2, status,0, pclath, cstack
  3070 ;; Tracked objects:
  3071 ;;		On entry : 0/0
  3072 ;;		On exit  : 0/0
  3073 ;;		Unchanged: 0/0
  3074 ;; Data sizes:     COMMON   BANK0   BANK1   BANK3   BANK2
  3075 ;;      Params:         0       0       0       0       0
  3076 ;;      Locals:         0       0       0       0       0
  3077 ;;      Temps:          2       0       0       0       0
  3078 ;;      Totals:         2       0       0       0       0
  3079 ;;Total ram usage:        2 bytes
  3080 ;; Hardware stack levels used: 1
  3081 ;; Hardware stack levels required when called: 1
  3082 ;; This function calls:
  3083 ;;		_clcd_write
  3084 ;; This function is called by:
  3085 ;;		_main
  3086 ;;		_power_on_screen
  3087 ;; This function uses a non-reentrant model
  3088 ;;
  3089                           
  3090     0F61                     _clear_screen:	
  3091                           ;psect for function _clear_screen
  3092                           
  3093     0F61                     l1417:	
  3094                           ;incstack = 0
  3095                           ; Regs used in _clear_screen: [wreg+status,2+status,0+pclath+cstack]
  3096                           
  3097                           
  3098                           ;micro_oven.c: 19:     clcd_write(0x01, 0);
  3099     0F61  01F2               	clrf	clcd_write@mode
  3100     0F62  3001               	movlw	1
  3101     0F63  120A  118A  278B  120A  158A  	fcall	_clcd_write
  3102     0F68                     l1419:
  3103                           
  3104                           ;micro_oven.c: 20:     _delay((unsigned long)((500)*(20000000/4000000.0)));
  3105     0F68  3004               	movlw	4
  3106     0F69  00F7               	movwf	??_clear_screen+1
  3107     0F6A  303D               	movlw	61
  3108     0F6B  00F6               	movwf	??_clear_screen
  3109     0F6C                     u1867:
  3110     0F6C  0BF6               	decfsz	??_clear_screen,f
  3111     0F6D  2F6C               	goto	u1867
  3112     0F6E  0BF7               	decfsz	??_clear_screen+1,f
  3113     0F6F  2F6C               	goto	u1867
  3114     0F70  2F71               	nop2
  3115     0F71                     l142:
  3116     0F71  0008               	return
  3117     0F72                     __end_of_clear_screen:
  3118                           
  3119                           	psect	text8
  3120     0F50                     __ptext8:	
  3121 ;; *************** function _clcd_putch *****************
  3122 ;; Defined at:
  3123 ;;		line 42 in file "clcd.c"
  3124 ;; Parameters:    Size  Location     Type
  3125 ;;  data            1    wreg     const unsigned char 
  3126 ;;  addr            1    6[COMMON] unsigned char 
  3127 ;; Auto vars:     Size  Location     Type
  3128 ;;  data            1    7[COMMON] const unsigned char 
  3129 ;; Return value:  Size  Location     Type
  3130 ;;                  1    wreg      void 
  3131 ;; Registers used:
  3132 ;;		wreg, status,2, status,0, pclath, cstack
  3133 ;; Tracked objects:
  3134 ;;		On entry : 0/0
  3135 ;;		On exit  : 0/0
  3136 ;;		Unchanged: 0/0
  3137 ;; Data sizes:     COMMON   BANK0   BANK1   BANK3   BANK2
  3138 ;;      Params:         1       0       0       0       0
  3139 ;;      Locals:         1       0       0       0       0
  3140 ;;      Temps:          0       0       0       0       0
  3141 ;;      Totals:         2       0       0       0       0
  3142 ;;Total ram usage:        2 bytes
  3143 ;; Hardware stack levels used: 1
  3144 ;; Hardware stack levels required when called: 2
  3145 ;; This function calls:
  3146 ;;		_clcd_write
  3147 ;; This function is called by:
  3148 ;;		_power_on_screen
  3149 ;; This function uses a non-reentrant model
  3150 ;;
  3151                           
  3152     0F50                     _clcd_putch:	
  3153                           ;psect for function _clcd_putch
  3154                           
  3155                           
  3156                           ;incstack = 0
  3157                           ; Regs used in _clcd_putch: [wreg+status,2+status,0+pclath+cstack]
  3158                           ;clcd_putch@data stored from wreg
  3159     0F50  00F7               	movwf	clcd_putch@data
  3160     0F51                     l1429:
  3161                           
  3162                           ;clcd.c: 43:     clcd_write(addr, 0);
  3163     0F51  01F2               	clrf	clcd_write@mode
  3164     0F52  0876               	movf	clcd_putch@addr,w
  3165     0F53  120A  118A  278B  120A  158A  	fcall	_clcd_write
  3166                           
  3167                           ;clcd.c: 44:     clcd_write(data, 1);
  3168     0F58  01F2               	clrf	clcd_write@mode
  3169     0F59  0AF2               	incf	clcd_write@mode,f
  3170     0F5A  0877               	movf	clcd_putch@data,w
  3171     0F5B  120A  118A  278B  120A  158A  	fcall	_clcd_write
  3172     0F60                     l265:
  3173     0F60  0008               	return
  3174     0F61                     __end_of_clcd_putch:
  3175                           
  3176                           	psect	text9
  3177     0568                     __ptext9:	
  3178 ;; *************** function _operation_mode *****************
  3179 ;; Defined at:
  3180 ;;		line 96 in file "micro_oven.c"
  3181 ;; Parameters:    Size  Location     Type
  3182 ;;  min             2    5[BANK0 ] unsigned int 
  3183 ;;  sec             2    7[BANK0 ] unsigned int 
  3184 ;; Auto vars:     Size  Location     Type
  3185 ;;  time_str        6    9[BANK0 ] unsigned char [6]
  3186 ;; Return value:  Size  Location     Type
  3187 ;;                  1    wreg      void 
  3188 ;; Registers used:
  3189 ;;		wreg, fsr0l, fsr0h, status,2, status,0, pclath, btemp1, cstack
  3190 ;; Tracked objects:
  3191 ;;		On entry : 0/0
  3192 ;;		On exit  : 0/0
  3193 ;;		Unchanged: 0/0
  3194 ;; Data sizes:     COMMON   BANK0   BANK1   BANK3   BANK2
  3195 ;;      Params:         0       4       0       0       0
  3196 ;;      Locals:         0       6       0       0       0
  3197 ;;      Temps:          0       0       0       0       0
  3198 ;;      Totals:         0      10       0       0       0
  3199 ;;Total ram usage:       10 bytes
  3200 ;; Hardware stack levels used: 1
  3201 ;; Hardware stack levels required when called: 2
  3202 ;; This function calls:
  3203 ;;		___lwdiv
  3204 ;;		___lwmod
  3205 ;;		_clcd_print
  3206 ;; This function is called by:
  3207 ;;		_main
  3208 ;; This function uses a non-reentrant model
  3209 ;;
  3210                           
  3211     0568                     _operation_mode:	
  3212                           ;psect for function _operation_mode
  3213                           
  3214     0568                     l2049:	
  3215                           ;incstack = 0
  3216                           ; Regs used in _operation_mode: [wreg-fsr0h+status,2+status,0+pclath+btemp1+cstack]
  3217                           
  3218                           
  3219                           ;micro_oven.c: 97:     clcd_print("TIME = ", ((unsigned char)(0x80 + 0)));
  3220     0568  30D4               	movlw	(low ((STR_16-__stringbase)| (0+32768)))& (0+255)
  3221     0569  1283               	bcf	3,5	;RP0=0, select bank0
  3222     056A  1303               	bcf	3,6	;RP1=0, select bank0
  3223     056B  00A0               	movwf	clcd_print@str
  3224     056C  3080               	movlw	128
  3225     056D  00A1               	movwf	clcd_print@str+1
  3226     056E  3080               	movlw	128
  3227     056F  00A2               	movwf	clcd_print@addr
  3228     0570  120A  118A  21C1  120A  118A  	fcall	_clcd_print
  3229     0575                     l2051:
  3230                           
  3231                           ;micro_oven.c: 98:     char time_str[6];;micro_oven.c: 99:     time_str[0] = (char)((min
      +                           / 10) + '0');
  3232     0575  300A               	movlw	10
  3233     0576  00F2               	movwf	___lwdiv@divisor
  3234     0577  3000               	movlw	0
  3235     0578  00F3               	movwf	___lwdiv@divisor+1
  3236     0579  1283               	bcf	3,5	;RP0=0, select bank0
  3237     057A  1303               	bcf	3,6	;RP1=0, select bank0
  3238     057B  0826               	movf	operation_mode@min+1,w
  3239     057C  00F5               	movwf	___lwdiv@dividend+1
  3240     057D  0825               	movf	operation_mode@min,w
  3241     057E  00F4               	movwf	___lwdiv@dividend
  3242     057F  120A  118A  26CD  120A  118A  	fcall	___lwdiv
  3243     0584  0872               	movf	?___lwdiv,w
  3244     0585  3E30               	addlw	48
  3245     0586  1283               	bcf	3,5	;RP0=0, select bank0
  3246     0587  1303               	bcf	3,6	;RP1=0, select bank0
  3247     0588  00A9               	movwf	operation_mode@time_str
  3248     0589                     l2053:
  3249                           
  3250                           ;micro_oven.c: 100:     time_str[1] = (char)((min % 10) + '0');
  3251     0589  300A               	movlw	10
  3252     058A  00A0               	movwf	___lwmod@divisor
  3253     058B  3000               	movlw	0
  3254     058C  00A1               	movwf	___lwmod@divisor+1
  3255     058D  0826               	movf	operation_mode@min+1,w
  3256     058E  00A3               	movwf	___lwmod@dividend+1
  3257     058F  0825               	movf	operation_mode@min,w
  3258     0590  00A2               	movwf	___lwmod@dividend
  3259     0591  120A  118A  2751  120A  118A  	fcall	___lwmod
  3260     0596  1283               	bcf	3,5	;RP0=0, select bank0
  3261     0597  1303               	bcf	3,6	;RP1=0, select bank0
  3262     0598  0820               	movf	?___lwmod,w
  3263     0599  3E30               	addlw	48
  3264     059A  00AA               	movwf	operation_mode@time_str+1
  3265     059B                     l2055:
  3266                           
  3267                           ;micro_oven.c: 101:     time_str[2] = ':';
  3268     059B  303A               	movlw	58
  3269     059C  00AB               	movwf	operation_mode@time_str+2
  3270     059D                     l2057:
  3271                           
  3272                           ;micro_oven.c: 102:     time_str[3] = (char)((sec / 10) + '0');
  3273     059D  300A               	movlw	10
  3274     059E  00F2               	movwf	___lwdiv@divisor
  3275     059F  3000               	movlw	0
  3276     05A0  00F3               	movwf	___lwdiv@divisor+1
  3277     05A1  0828               	movf	operation_mode@sec+1,w
  3278     05A2  00F5               	movwf	___lwdiv@dividend+1
  3279     05A3  0827               	movf	operation_mode@sec,w
  3280     05A4  00F4               	movwf	___lwdiv@dividend
  3281     05A5  120A  118A  26CD  120A  118A  	fcall	___lwdiv
  3282     05AA  0872               	movf	?___lwdiv,w
  3283     05AB  3E30               	addlw	48
  3284     05AC  1283               	bcf	3,5	;RP0=0, select bank0
  3285     05AD  1303               	bcf	3,6	;RP1=0, select bank0
  3286     05AE  00AC               	movwf	operation_mode@time_str+3
  3287     05AF                     l2059:
  3288                           
  3289                           ;micro_oven.c: 103:     time_str[4] = (char)((sec % 10) + '0');
  3290     05AF  300A               	movlw	10
  3291     05B0  00A0               	movwf	___lwmod@divisor
  3292     05B1  3000               	movlw	0
  3293     05B2  00A1               	movwf	___lwmod@divisor+1
  3294     05B3  0828               	movf	operation_mode@sec+1,w
  3295     05B4  00A3               	movwf	___lwmod@dividend+1
  3296     05B5  0827               	movf	operation_mode@sec,w
  3297     05B6  00A2               	movwf	___lwmod@dividend
  3298     05B7  120A  118A  2751  120A  118A  	fcall	___lwmod
  3299     05BC  1283               	bcf	3,5	;RP0=0, select bank0
  3300     05BD  1303               	bcf	3,6	;RP1=0, select bank0
  3301     05BE  0820               	movf	?___lwmod,w
  3302     05BF  3E30               	addlw	48
  3303     05C0  00AD               	movwf	operation_mode@time_str+4
  3304     05C1                     l2061:
  3305                           
  3306                           ;micro_oven.c: 104:     time_str[5] = '\0';
  3307     05C1  01AE               	clrf	operation_mode@time_str+5
  3308     05C2                     l2063:
  3309                           
  3310                           ;micro_oven.c: 105:     clcd_print(time_str, ((unsigned char)(0x80 + 7)));
  3311     05C2  3029               	movlw	(low (operation_mode@time_str| 0))& (0+255)
  3312     05C3  00A0               	movwf	clcd_print@str
  3313     05C4  3000               	movlw	0
  3314     05C5  00A1               	movwf	clcd_print@str+1
  3315     05C6  3087               	movlw	135
  3316     05C7  00A2               	movwf	clcd_print@addr
  3317     05C8  120A  118A  21C1  120A  118A  	fcall	_clcd_print
  3318     05CD                     l2065:
  3319                           
  3320                           ;micro_oven.c: 107:     clcd_print("4.START/RESUME", ((unsigned char)(0xC0 + 0)));
  3321     05CD  3023               	movlw	(low ((STR_17-__stringbase)| (0+32768)))& (0+255)
  3322     05CE  1283               	bcf	3,5	;RP0=0, select bank0
  3323     05CF  1303               	bcf	3,6	;RP1=0, select bank0
  3324     05D0  00A0               	movwf	clcd_print@str
  3325     05D1  3080               	movlw	128
  3326     05D2  00A1               	movwf	clcd_print@str+1
  3327     05D3  30C0               	movlw	192
  3328     05D4  00A2               	movwf	clcd_print@addr
  3329     05D5  120A  118A  21C1  120A  118A  	fcall	_clcd_print
  3330     05DA                     l2067:
  3331                           
  3332                           ;micro_oven.c: 108:     clcd_print("5.PAUSE", ((unsigned char)(0x90 + 0)));
  3333     05DA  30DC               	movlw	(low ((STR_18-__stringbase)| (0+32768)))& (0+255)
  3334     05DB  1283               	bcf	3,5	;RP0=0, select bank0
  3335     05DC  1303               	bcf	3,6	;RP1=0, select bank0
  3336     05DD  00A0               	movwf	clcd_print@str
  3337     05DE  3080               	movlw	128
  3338     05DF  00A1               	movwf	clcd_print@str+1
  3339     05E0  3090               	movlw	144
  3340     05E1  00A2               	movwf	clcd_print@addr
  3341     05E2  120A  118A  21C1  120A  118A  	fcall	_clcd_print
  3342     05E7                     l2069:
  3343                           
  3344                           ;micro_oven.c: 109:     clcd_print("6.STOP", ((unsigned char)(0xD0 + 0)));
  3345     05E7  30E4               	movlw	(low ((STR_19-__stringbase)| (0+32768)))& (0+255)
  3346     05E8  1283               	bcf	3,5	;RP0=0, select bank0
  3347     05E9  1303               	bcf	3,6	;RP1=0, select bank0
  3348     05EA  00A0               	movwf	clcd_print@str
  3349     05EB  3080               	movlw	128
  3350     05EC  00A1               	movwf	clcd_print@str+1
  3351     05ED  30D0               	movlw	208
  3352     05EE  00A2               	movwf	clcd_print@addr
  3353     05EF  120A  118A  21C1  120A  118A  	fcall	_clcd_print
  3354     05F4                     l179:
  3355     05F4  0008               	return
  3356     05F5                     __end_of_operation_mode:
  3357                           
  3358                           	psect	text10
  3359     0751                     __ptext10:	
  3360 ;; *************** function ___lwmod *****************
  3361 ;; Defined at:
  3362 ;;		line 5 in file "D:\USEME FOLDER\EMERTXE\pic\sources\c99\common\lwmod.c"
  3363 ;; Parameters:    Size  Location     Type
  3364 ;;  divisor         2    0[BANK0 ] unsigned int 
  3365 ;;  dividend        2    2[BANK0 ] unsigned int 
  3366 ;; Auto vars:     Size  Location     Type
  3367 ;;  counter         1    4[BANK0 ] unsigned char 
  3368 ;; Return value:  Size  Location     Type
  3369 ;;                  2    0[BANK0 ] unsigned int 
  3370 ;; Registers used:
  3371 ;;		wreg, status,2, status,0
  3372 ;; Tracked objects:
  3373 ;;		On entry : 0/0
  3374 ;;		On exit  : 0/0
  3375 ;;		Unchanged: 0/0
  3376 ;; Data sizes:     COMMON   BANK0   BANK1   BANK3   BANK2
  3377 ;;      Params:         0       4       0       0       0
  3378 ;;      Locals:         0       1       0       0       0
  3379 ;;      Temps:          0       0       0       0       0
  3380 ;;      Totals:         0       5       0       0       0
  3381 ;;Total ram usage:        5 bytes
  3382 ;; Hardware stack levels used: 1
  3383 ;; Hardware stack levels required when called: 1
  3384 ;; This function calls:
  3385 ;;		Nothing
  3386 ;; This function is called by:
  3387 ;;		_set_time
  3388 ;;		_set_temp
  3389 ;;		_operation_mode
  3390 ;; This function uses a non-reentrant model
  3391 ;;
  3392                           
  3393     0751                     ___lwmod:	
  3394                           ;psect for function ___lwmod
  3395                           
  3396     0751                     l1943:	
  3397                           ;incstack = 0
  3398                           ; Regs used in ___lwmod: [wreg+status,2+status,0]
  3399                           
  3400     0751  1283               	bcf	3,5	;RP0=0, select bank0
  3401     0752  1303               	bcf	3,6	;RP1=0, select bank0
  3402     0753  0820               	movf	___lwmod@divisor,w
  3403     0754  0421               	iorwf	___lwmod@divisor+1,w
  3404     0755  1903               	btfsc	3,2
  3405     0756  2F58               	goto	u1491
  3406     0757  2F59               	goto	u1490
  3407     0758                     u1491:
  3408     0758  2F86               	goto	l1961
  3409     0759                     u1490:
  3410     0759                     l1945:
  3411     0759  3001               	movlw	1
  3412     075A  00A4               	movwf	___lwmod@counter
  3413     075B  2F65               	goto	l1951
  3414     075C                     l1947:
  3415     075C  3001               	movlw	1
  3416     075D                     u1505:
  3417     075D  1003               	clrc
  3418     075E  0DA0               	rlf	___lwmod@divisor,f
  3419     075F  0DA1               	rlf	___lwmod@divisor+1,f
  3420     0760  3EFF               	addlw	-1
  3421     0761  1D03               	skipz
  3422     0762  2F5D               	goto	u1505
  3423     0763                     l1949:
  3424     0763  3001               	movlw	1
  3425     0764  07A4               	addwf	___lwmod@counter,f
  3426     0765                     l1951:
  3427     0765  1FA1               	btfss	___lwmod@divisor+1,7
  3428     0766  2F68               	goto	u1511
  3429     0767  2F69               	goto	u1510
  3430     0768                     u1511:
  3431     0768  2F5C               	goto	l1947
  3432     0769                     u1510:
  3433     0769                     l1953:
  3434     0769  0821               	movf	___lwmod@divisor+1,w
  3435     076A  0223               	subwf	___lwmod@dividend+1,w
  3436     076B  1D03               	skipz
  3437     076C  2F6F               	goto	u1525
  3438     076D  0820               	movf	___lwmod@divisor,w
  3439     076E  0222               	subwf	___lwmod@dividend,w
  3440     076F                     u1525:
  3441     076F  1C03               	skipc
  3442     0770  2F72               	goto	u1521
  3443     0771  2F73               	goto	u1520
  3444     0772                     u1521:
  3445     0772  2F79               	goto	l1957
  3446     0773                     u1520:
  3447     0773                     l1955:
  3448     0773  0820               	movf	___lwmod@divisor,w
  3449     0774  02A2               	subwf	___lwmod@dividend,f
  3450     0775  0821               	movf	___lwmod@divisor+1,w
  3451     0776  1C03               	skipc
  3452     0777  03A3               	decf	___lwmod@dividend+1,f
  3453     0778  02A3               	subwf	___lwmod@dividend+1,f
  3454     0779                     l1957:
  3455     0779  3001               	movlw	1
  3456     077A                     u1535:
  3457     077A  1003               	clrc
  3458     077B  0CA1               	rrf	___lwmod@divisor+1,f
  3459     077C  0CA0               	rrf	___lwmod@divisor,f
  3460     077D  3EFF               	addlw	-1
  3461     077E  1D03               	skipz
  3462     077F  2F7A               	goto	u1535
  3463     0780                     l1959:
  3464     0780  3001               	movlw	1
  3465     0781  02A4               	subwf	___lwmod@counter,f
  3466     0782  1D03               	btfss	3,2
  3467     0783  2F85               	goto	u1541
  3468     0784  2F86               	goto	u1540
  3469     0785                     u1541:
  3470     0785  2F69               	goto	l1953
  3471     0786                     u1540:
  3472     0786                     l1961:
  3473     0786  0823               	movf	___lwmod@dividend+1,w
  3474     0787  00A1               	movwf	?___lwmod+1
  3475     0788  0822               	movf	___lwmod@dividend,w
  3476     0789  00A0               	movwf	?___lwmod
  3477     078A                     l647:
  3478     078A  0008               	return
  3479     078B                     __end_of___lwmod:
  3480                           
  3481                           	psect	text11
  3482     06CD                     __ptext11:	
  3483 ;; *************** function ___lwdiv *****************
  3484 ;; Defined at:
  3485 ;;		line 5 in file "D:\USEME FOLDER\EMERTXE\pic\sources\c99\common\lwdiv.c"
  3486 ;; Parameters:    Size  Location     Type
  3487 ;;  divisor         2    2[COMMON] unsigned int 
  3488 ;;  dividend        2    4[COMMON] unsigned int 
  3489 ;; Auto vars:     Size  Location     Type
  3490 ;;  quotient        2    7[COMMON] unsigned int 
  3491 ;;  counter         1    6[COMMON] unsigned char 
  3492 ;; Return value:  Size  Location     Type
  3493 ;;                  2    2[COMMON] unsigned int 
  3494 ;; Registers used:
  3495 ;;		wreg, status,2, status,0
  3496 ;; Tracked objects:
  3497 ;;		On entry : 0/0
  3498 ;;		On exit  : 0/0
  3499 ;;		Unchanged: 0/0
  3500 ;; Data sizes:     COMMON   BANK0   BANK1   BANK3   BANK2
  3501 ;;      Params:         4       0       0       0       0
  3502 ;;      Locals:         3       0       0       0       0
  3503 ;;      Temps:          0       0       0       0       0
  3504 ;;      Totals:         7       0       0       0       0
  3505 ;;Total ram usage:        7 bytes
  3506 ;; Hardware stack levels used: 1
  3507 ;; Hardware stack levels required when called: 1
  3508 ;; This function calls:
  3509 ;;		Nothing
  3510 ;; This function is called by:
  3511 ;;		_set_time
  3512 ;;		_set_temp
  3513 ;;		_operation_mode
  3514 ;; This function uses a non-reentrant model
  3515 ;;
  3516                           
  3517     06CD                     ___lwdiv:	
  3518                           ;psect for function ___lwdiv
  3519                           
  3520     06CD                     l1917:	
  3521                           ;incstack = 0
  3522                           ; Regs used in ___lwdiv: [wreg+status,2+status,0]
  3523                           
  3524     06CD  01F7               	clrf	___lwdiv@quotient
  3525     06CE  01F8               	clrf	___lwdiv@quotient+1
  3526     06CF                     l1919:
  3527     06CF  0872               	movf	___lwdiv@divisor,w
  3528     06D0  0473               	iorwf	___lwdiv@divisor+1,w
  3529     06D1  1903               	btfsc	3,2
  3530     06D2  2ED4               	goto	u1421
  3531     06D3  2ED5               	goto	u1420
  3532     06D4                     u1421:
  3533     06D4  2F0A               	goto	l1939
  3534     06D5                     u1420:
  3535     06D5                     l1921:
  3536     06D5  3001               	movlw	1
  3537     06D6  00F6               	movwf	___lwdiv@counter
  3538     06D7  2EE1               	goto	l1927
  3539     06D8                     l1923:
  3540     06D8  3001               	movlw	1
  3541     06D9                     u1435:
  3542     06D9  1003               	clrc
  3543     06DA  0DF2               	rlf	___lwdiv@divisor,f
  3544     06DB  0DF3               	rlf	___lwdiv@divisor+1,f
  3545     06DC  3EFF               	addlw	-1
  3546     06DD  1D03               	skipz
  3547     06DE  2ED9               	goto	u1435
  3548     06DF                     l1925:
  3549     06DF  3001               	movlw	1
  3550     06E0  07F6               	addwf	___lwdiv@counter,f
  3551     06E1                     l1927:
  3552     06E1  1FF3               	btfss	___lwdiv@divisor+1,7
  3553     06E2  2EE4               	goto	u1441
  3554     06E3  2EE5               	goto	u1440
  3555     06E4                     u1441:
  3556     06E4  2ED8               	goto	l1923
  3557     06E5                     u1440:
  3558     06E5                     l1929:
  3559     06E5  3001               	movlw	1
  3560     06E6                     u1455:
  3561     06E6  1003               	clrc
  3562     06E7  0DF7               	rlf	___lwdiv@quotient,f
  3563     06E8  0DF8               	rlf	___lwdiv@quotient+1,f
  3564     06E9  3EFF               	addlw	-1
  3565     06EA  1D03               	skipz
  3566     06EB  2EE6               	goto	u1455
  3567     06EC  0873               	movf	___lwdiv@divisor+1,w
  3568     06ED  0275               	subwf	___lwdiv@dividend+1,w
  3569     06EE  1D03               	skipz
  3570     06EF  2EF2               	goto	u1465
  3571     06F0  0872               	movf	___lwdiv@divisor,w
  3572     06F1  0274               	subwf	___lwdiv@dividend,w
  3573     06F2                     u1465:
  3574     06F2  1C03               	skipc
  3575     06F3  2EF5               	goto	u1461
  3576     06F4  2EF6               	goto	u1460
  3577     06F5                     u1461:
  3578     06F5  2EFD               	goto	l1935
  3579     06F6                     u1460:
  3580     06F6                     l1931:
  3581     06F6  0872               	movf	___lwdiv@divisor,w
  3582     06F7  02F4               	subwf	___lwdiv@dividend,f
  3583     06F8  0873               	movf	___lwdiv@divisor+1,w
  3584     06F9  1C03               	skipc
  3585     06FA  03F5               	decf	___lwdiv@dividend+1,f
  3586     06FB  02F5               	subwf	___lwdiv@dividend+1,f
  3587     06FC                     l1933:
  3588     06FC  1477               	bsf	___lwdiv@quotient,0
  3589     06FD                     l1935:
  3590     06FD  3001               	movlw	1
  3591     06FE                     u1475:
  3592     06FE  1003               	clrc
  3593     06FF  0CF3               	rrf	___lwdiv@divisor+1,f
  3594     0700  0CF2               	rrf	___lwdiv@divisor,f
  3595     0701  3EFF               	addlw	-1
  3596     0702  1D03               	skipz
  3597     0703  2EFE               	goto	u1475
  3598     0704                     l1937:
  3599     0704  3001               	movlw	1
  3600     0705  02F6               	subwf	___lwdiv@counter,f
  3601     0706  1D03               	btfss	3,2
  3602     0707  2F09               	goto	u1481
  3603     0708  2F0A               	goto	u1480
  3604     0709                     u1481:
  3605     0709  2EE5               	goto	l1929
  3606     070A                     u1480:
  3607     070A                     l1939:
  3608     070A  0878               	movf	___lwdiv@quotient+1,w
  3609     070B  00F3               	movwf	?___lwdiv+1
  3610     070C  0877               	movf	___lwdiv@quotient,w
  3611     070D  00F2               	movwf	?___lwdiv
  3612     070E                     l637:
  3613     070E  0008               	return
  3614     070F                     __end_of___lwdiv:
  3615                           
  3616                           	psect	text12
  3617     0F72                     __ptext12:	
  3618 ;; *************** function _init_config *****************
  3619 ;; Defined at:
  3620 ;;		line 10 in file "main.c"
  3621 ;; Parameters:    Size  Location     Type
  3622 ;;		None
  3623 ;; Auto vars:     Size  Location     Type
  3624 ;;		None
  3625 ;; Return value:  Size  Location     Type
  3626 ;;                  1    wreg      void 
  3627 ;; Registers used:
  3628 ;;		wreg, status,2, status,0, pclath, cstack
  3629 ;; Tracked objects:
  3630 ;;		On entry : 0/0
  3631 ;;		On exit  : 0/0
  3632 ;;		Unchanged: 0/0
  3633 ;; Data sizes:     COMMON   BANK0   BANK1   BANK3   BANK2
  3634 ;;      Params:         0       0       0       0       0
  3635 ;;      Locals:         0       0       0       0       0
  3636 ;;      Temps:          0       0       0       0       0
  3637 ;;      Totals:         0       0       0       0       0
  3638 ;;Total ram usage:        0 bytes
  3639 ;; Hardware stack levels used: 1
  3640 ;; Hardware stack levels required when called: 4
  3641 ;; This function calls:
  3642 ;;		_init_clcd
  3643 ;;		_init_matrix_keypad
  3644 ;;		_init_timer2
  3645 ;; This function is called by:
  3646 ;;		_main
  3647 ;; This function uses a non-reentrant model
  3648 ;;
  3649                           
  3650     0F72                     _init_config:	
  3651                           ;psect for function _init_config
  3652                           
  3653     0F72                     l1563:	
  3654                           ;incstack = 0
  3655                           ; Regs used in _init_config: [wreg+status,2+status,0+pclath+cstack]
  3656                           
  3657                           
  3658                           ;main.c: 11:     RC2 = 0;
  3659     0F72  120A  118A  21F4  120A  158A  	fcall	_init_clcd
  3660                           
  3661                           ;main.c: 12:     TRISC1 = 0;
  3662     0F77  120A  158A  2740  120A  158A  	fcall	_init_matrix_keypad
  3663     0F7C                     l1565:
  3664                           
  3665                           ;main.c: 13:     RC1 = 0;
  3666     0F7C  120A  158A  2733  120A  158A  	fcall	_init_timer2
  3667     0F81                     l1567:
  3668                           
  3669                           ;main.c: 15:     PEIE = 1;
  3670     0F81  1683               	bsf	3,5	;RP0=1, select bank1
  3671     0F82  1303               	bcf	3,6	;RP1=0, select bank1
  3672     0F83  1107               	bcf	7,2	;volatile
  3673     0F84                     l1569:
  3674                           
  3675                           ;main.c: 16:     GIE = 1;
  3676     0F84  1283               	bcf	3,5	;RP0=0, select bank0
  3677     0F85  1303               	bcf	3,6	;RP1=0, select bank0
  3678     0F86  1107               	bcf	7,2	;volatile
  3679     0F87                     l1571:
  3680                           
  3681                           ;main.c: 17: }
  3682     0F87  1683               	bsf	3,5	;RP0=1, select bank1
  3683     0F88  1303               	bcf	3,6	;RP1=0, select bank1
  3684     0F89  1087               	bcf	7,1	;volatile
  3685     0F8A                     l1573:
  3686                           
  3687                           ;main.c: 18: 
  3688     0F8A  1283               	bcf	3,5	;RP0=0, select bank0
  3689     0F8B  1303               	bcf	3,6	;RP1=0, select bank0
  3690     0F8C  1087               	bcf	7,1	;volatile
  3691     0F8D                     l1575:
  3692                           
  3693                           ;main.c: 20:     unsigned char key;
  3694     0F8D  170B               	bsf	11,6	;volatile
  3695     0F8E                     l1577:
  3696                           
  3697                           ;main.c: 21: 
  3698     0F8E  178B               	bsf	11,7	;volatile
  3699     0F8F                     l72:
  3700     0F8F  0008               	return
  3701     0F90                     __end_of_init_config:
  3702                           
  3703                           	psect	text13
  3704     0F33                     __ptext13:	
  3705 ;; *************** function _init_timer2 *****************
  3706 ;; Defined at:
  3707 ;;		line 4 in file "timers.c"
  3708 ;; Parameters:    Size  Location     Type
  3709 ;;		None
  3710 ;; Auto vars:     Size  Location     Type
  3711 ;;		None
  3712 ;; Return value:  Size  Location     Type
  3713 ;;                  1    wreg      void 
  3714 ;; Registers used:
  3715 ;;		None
  3716 ;; Tracked objects:
  3717 ;;		On entry : 0/0
  3718 ;;		On exit  : 0/0
  3719 ;;		Unchanged: 0/0
  3720 ;; Data sizes:     COMMON   BANK0   BANK1   BANK3   BANK2
  3721 ;;      Params:         0       0       0       0       0
  3722 ;;      Locals:         0       0       0       0       0
  3723 ;;      Temps:          0       0       0       0       0
  3724 ;;      Totals:         0       0       0       0       0
  3725 ;;Total ram usage:        0 bytes
  3726 ;; Hardware stack levels used: 1
  3727 ;; Hardware stack levels required when called: 1
  3728 ;; This function calls:
  3729 ;;		Nothing
  3730 ;; This function is called by:
  3731 ;;		_init_config
  3732 ;; This function uses a non-reentrant model
  3733 ;;
  3734                           
  3735     0F33                     _init_timer2:	
  3736                           ;psect for function _init_timer2
  3737                           
  3738     0F33                     l1415:	
  3739                           ;incstack = 0
  3740                           ; Regs used in _init_timer2: []
  3741                           
  3742                           
  3743                           ;timers.c: 6:     T2CKPS0 = 1;
  3744     0F33  1283               	bcf	3,5	;RP0=0, select bank0
  3745     0F34  1303               	bcf	3,6	;RP1=0, select bank0
  3746     0F35  1412               	bsf	18,0	;volatile
  3747                           
  3748                           ;timers.c: 7:     T2CKPS1 = 1;
  3749     0F36  1492               	bsf	18,1	;volatile
  3750                           
  3751                           ;timers.c: 10:     PR2 = 250;
  3752     0F37  30FA               	movlw	250
  3753     0F38  1683               	bsf	3,5	;RP0=1, select bank1
  3754     0F39  1303               	bcf	3,6	;RP1=0, select bank1
  3755     0F3A  0092               	movwf	18	;volatile
  3756                           
  3757                           ;timers.c: 13:     TMR2IE = 1;
  3758     0F3B  148C               	bsf	12,1	;volatile
  3759                           
  3760                           ;timers.c: 16:     TMR2ON = 1;
  3761     0F3C  1283               	bcf	3,5	;RP0=0, select bank0
  3762     0F3D  1303               	bcf	3,6	;RP1=0, select bank0
  3763     0F3E  1512               	bsf	18,2	;volatile
  3764     0F3F                     l122:
  3765     0F3F  0008               	return
  3766     0F40                     __end_of_init_timer2:
  3767                           
  3768                           	psect	text14
  3769     0F40                     __ptext14:	
  3770 ;; *************** function _init_matrix_keypad *****************
  3771 ;; Defined at:
  3772 ;;		line 4 in file "matrix_keypad.c"
  3773 ;; Parameters:    Size  Location     Type
  3774 ;;		None
  3775 ;; Auto vars:     Size  Location     Type
  3776 ;;		None
  3777 ;; Return value:  Size  Location     Type
  3778 ;;                  1    wreg      void 
  3779 ;; Registers used:
  3780 ;;		wreg, status,2
  3781 ;; Tracked objects:
  3782 ;;		On entry : 0/0
  3783 ;;		On exit  : 0/0
  3784 ;;		Unchanged: 0/0
  3785 ;; Data sizes:     COMMON   BANK0   BANK1   BANK3   BANK2
  3786 ;;      Params:         0       0       0       0       0
  3787 ;;      Locals:         0       0       0       0       0
  3788 ;;      Temps:          0       0       0       0       0
  3789 ;;      Totals:         0       0       0       0       0
  3790 ;;Total ram usage:        0 bytes
  3791 ;; Hardware stack levels used: 1
  3792 ;; Hardware stack levels required when called: 1
  3793 ;; This function calls:
  3794 ;;		Nothing
  3795 ;; This function is called by:
  3796 ;;		_init_config
  3797 ;; This function uses a non-reentrant model
  3798 ;;
  3799                           
  3800     0F40                     _init_matrix_keypad:	
  3801                           ;psect for function _init_matrix_keypad
  3802                           
  3803     0F40                     l1403:	
  3804                           ;incstack = 0
  3805                           ; Regs used in _init_matrix_keypad: [wreg+status,2]
  3806                           
  3807                           
  3808                           ;matrix_keypad.c: 5:     TRISB = TRISB | 0x07;
  3809     0F40  1683               	bsf	3,5	;RP0=1, select bank1
  3810     0F41  1303               	bcf	3,6	;RP1=0, select bank1
  3811     0F42  0806               	movf	6,w	;volatile
  3812     0F43  3807               	iorlw	7
  3813     0F44  0086               	movwf	6	;volatile
  3814                           
  3815                           ;matrix_keypad.c: 6:     TRISD = TRISD & 0xF0;
  3816     0F45  0808               	movf	8,w	;volatile
  3817     0F46  39F0               	andlw	240
  3818     0F47  0088               	movwf	8	;volatile
  3819     0F48                     l1405:
  3820                           
  3821                           ;matrix_keypad.c: 7:     nRBPU = 0;
  3822     0F48  1381               	bcf	1,7	;volatile
  3823     0F49                     l1407:
  3824                           
  3825                           ;matrix_keypad.c: 8:     RD3 = 1;
  3826     0F49  1283               	bcf	3,5	;RP0=0, select bank0
  3827     0F4A  1303               	bcf	3,6	;RP1=0, select bank0
  3828     0F4B  1588               	bsf	8,3	;volatile
  3829     0F4C                     l1409:
  3830                           
  3831                           ;matrix_keypad.c: 9:     RD2 = 1;
  3832     0F4C  1508               	bsf	8,2	;volatile
  3833     0F4D                     l1411:
  3834                           
  3835                           ;matrix_keypad.c: 10:     RD1 = 1;
  3836     0F4D  1488               	bsf	8,1	;volatile
  3837     0F4E                     l1413:
  3838                           
  3839                           ;matrix_keypad.c: 11:     RD0 = 1;
  3840     0F4E  1408               	bsf	8,0	;volatile
  3841     0F4F                     l202:
  3842     0F4F  0008               	return
  3843     0F50                     __end_of_init_matrix_keypad:
  3844                           
  3845                           	psect	text15
  3846     01F4                     __ptext15:	
  3847 ;; *************** function _init_clcd *****************
  3848 ;; Defined at:
  3849 ;;		line 35 in file "clcd.c"
  3850 ;; Parameters:    Size  Location     Type
  3851 ;;		None
  3852 ;; Auto vars:     Size  Location     Type
  3853 ;;		None
  3854 ;; Return value:  Size  Location     Type
  3855 ;;                  1    wreg      void 
  3856 ;; Registers used:
  3857 ;;		wreg, status,2, status,0, pclath, cstack
  3858 ;; Tracked objects:
  3859 ;;		On entry : 0/0
  3860 ;;		On exit  : 0/0
  3861 ;;		Unchanged: 0/0
  3862 ;; Data sizes:     COMMON   BANK0   BANK1   BANK3   BANK2
  3863 ;;      Params:         0       0       0       0       0
  3864 ;;      Locals:         0       0       0       0       0
  3865 ;;      Temps:          0       0       0       0       0
  3866 ;;      Totals:         0       0       0       0       0
  3867 ;;Total ram usage:        0 bytes
  3868 ;; Hardware stack levels used: 1
  3869 ;; Hardware stack levels required when called: 3
  3870 ;; This function calls:
  3871 ;;		_init_display_controller
  3872 ;; This function is called by:
  3873 ;;		_init_config
  3874 ;; This function uses a non-reentrant model
  3875 ;;
  3876                           
  3877     01F4                     _init_clcd:	
  3878                           ;psect for function _init_clcd
  3879                           
  3880     01F4                     l1395:	
  3881                           ;incstack = 0
  3882                           ; Regs used in _init_clcd: [wreg+status,2+status,0+pclath+cstack]
  3883                           
  3884                           
  3885                           ;clcd.c: 36:     TRISD = 0x00;
  3886     01F4  1683               	bsf	3,5	;RP0=1, select bank1
  3887     01F5  1303               	bcf	3,6	;RP1=0, select bank1
  3888     01F6  0188               	clrf	8	;volatile
  3889     01F7                     l1397:
  3890                           
  3891                           ;clcd.c: 37:     TRISE2 = 0;
  3892     01F7  1109               	bcf	9,2	;volatile
  3893     01F8                     l1399:
  3894                           
  3895                           ;clcd.c: 38:     TRISE1 = 0;
  3896     01F8  1089               	bcf	9,1	;volatile
  3897     01F9                     l1401:
  3898                           
  3899                           ;clcd.c: 39:     init_display_controller();
  3900     01F9  120A  118A  266A  120A  118A  	fcall	_init_display_controller
  3901     01FE                     l262:
  3902     01FE  0008               	return
  3903     01FF                     __end_of_init_clcd:
  3904                           
  3905                           	psect	text16
  3906     066A                     __ptext16:	
  3907 ;; *************** function _init_display_controller *****************
  3908 ;; Defined at:
  3909 ;;		line 17 in file "clcd.c"
  3910 ;; Parameters:    Size  Location     Type
  3911 ;;		None
  3912 ;; Auto vars:     Size  Location     Type
  3913 ;;		None
  3914 ;; Return value:  Size  Location     Type
  3915 ;;                  1    wreg      void 
  3916 ;; Registers used:
  3917 ;;		wreg, status,2, status,0, pclath, cstack
  3918 ;; Tracked objects:
  3919 ;;		On entry : 0/0
  3920 ;;		On exit  : 0/0
  3921 ;;		Unchanged: 0/0
  3922 ;; Data sizes:     COMMON   BANK0   BANK1   BANK3   BANK2
  3923 ;;      Params:         0       0       0       0       0
  3924 ;;      Locals:         0       0       0       0       0
  3925 ;;      Temps:          2       0       0       0       0
  3926 ;;      Totals:         2       0       0       0       0
  3927 ;;Total ram usage:        2 bytes
  3928 ;; Hardware stack levels used: 1
  3929 ;; Hardware stack levels required when called: 2
  3930 ;; This function calls:
  3931 ;;		_clcd_write
  3932 ;; This function is called by:
  3933 ;;		_init_clcd
  3934 ;; This function uses a non-reentrant model
  3935 ;;
  3936                           
  3937     066A                     _init_display_controller:	
  3938                           ;psect for function _init_display_controller
  3939                           
  3940     066A                     l1371:	
  3941                           ;incstack = 0
  3942                           ; Regs used in _init_display_controller: [wreg+status,2+status,0+pclath+cstack]
  3943                           
  3944                           
  3945                           ;clcd.c: 18:     _delay((unsigned long)((30)*(20000000/4000.0)));
  3946     066A  30C3               	movlw	195
  3947     066B  00F7               	movwf	??_init_display_controller+1
  3948     066C  30CD               	movlw	205
  3949     066D  00F6               	movwf	??_init_display_controller
  3950     066E                     u1877:
  3951     066E  0BF6               	decfsz	??_init_display_controller,f
  3952     066F  2E6E               	goto	u1877
  3953     0670  0BF7               	decfsz	??_init_display_controller+1,f
  3954     0671  2E6E               	goto	u1877
  3955     0672                     l1373:
  3956                           
  3957                           ;clcd.c: 19:     clcd_write(0x33, 0);
  3958     0672  01F2               	clrf	clcd_write@mode
  3959     0673  3033               	movlw	51
  3960     0674  120A  118A  278B  120A  118A  	fcall	_clcd_write
  3961     0679                     l1375:
  3962                           
  3963                           ;clcd.c: 20:     _delay((unsigned long)((4100)*(20000000/4000000.0)));
  3964     0679  301B               	movlw	27
  3965     067A  00F7               	movwf	??_init_display_controller+1
  3966     067B  309E               	movlw	158
  3967     067C  00F6               	movwf	??_init_display_controller
  3968     067D                     u1887:
  3969     067D  0BF6               	decfsz	??_init_display_controller,f
  3970     067E  2E7D               	goto	u1887
  3971     067F  0BF7               	decfsz	??_init_display_controller+1,f
  3972     0680  2E7D               	goto	u1887
  3973     0681  0000               	nop
  3974                           
  3975                           ;clcd.c: 21:     clcd_write(0x33, 0);
  3976     0682  01F2               	clrf	clcd_write@mode
  3977     0683  3033               	movlw	51
  3978     0684  120A  118A  278B  120A  118A  	fcall	_clcd_write
  3979     0689                     l1377:
  3980                           
  3981                           ;clcd.c: 22:     _delay((unsigned long)((100)*(20000000/4000000.0)));
  3982     0689  30A6               	movlw	166
  3983     068A  00F6               	movwf	??_init_display_controller
  3984     068B                     u1897:
  3985     068B  0BF6               	decfsz	??_init_display_controller,f
  3986     068C  2E8B               	goto	u1897
  3987     068D  0000               	nop
  3988     068E                     l1379:
  3989                           
  3990                           ;clcd.c: 23:     clcd_write(0x33, 0);
  3991     068E  01F2               	clrf	clcd_write@mode
  3992     068F  3033               	movlw	51
  3993     0690  120A  118A  278B  120A  118A  	fcall	_clcd_write
  3994     0695                     l1381:
  3995                           
  3996                           ;clcd.c: 24:     _delay((unsigned long)((1)*(20000000/4000000.0)));
  3997     0695  2E96               	nop2	;2 cycle nop
  3998     0696  2E97               	nop2	;2 cycle nop
  3999     0697  0000               	nop
  4000     0698                     l1383:
  4001                           
  4002                           ;clcd.c: 25:     clcd_write(0x02, 0);
  4003     0698  01F2               	clrf	clcd_write@mode
  4004     0699  3002               	movlw	2
  4005     069A  120A  118A  278B  120A  118A  	fcall	_clcd_write
  4006     069F                     l1385:
  4007                           
  4008                           ;clcd.c: 26:     _delay((unsigned long)((100)*(20000000/4000000.0)));
  4009     069F  30A6               	movlw	166
  4010     06A0  00F6               	movwf	??_init_display_controller
  4011     06A1                     u1907:
  4012     06A1  0BF6               	decfsz	??_init_display_controller,f
  4013     06A2  2EA1               	goto	u1907
  4014     06A3  0000               	nop
  4015                           
  4016                           ;clcd.c: 27:     clcd_write(0x28, 0);
  4017     06A4  01F2               	clrf	clcd_write@mode
  4018     06A5  3028               	movlw	40
  4019     06A6  120A  118A  278B  120A  118A  	fcall	_clcd_write
  4020     06AB                     l1387:
  4021                           
  4022                           ;clcd.c: 28:     _delay((unsigned long)((100)*(20000000/4000000.0)));
  4023     06AB  30A6               	movlw	166
  4024     06AC  00F6               	movwf	??_init_display_controller
  4025     06AD                     u1917:
  4026     06AD  0BF6               	decfsz	??_init_display_controller,f
  4027     06AE  2EAD               	goto	u1917
  4028     06AF  0000               	nop
  4029     06B0                     l1389:
  4030                           
  4031                           ;clcd.c: 29:     clcd_write(0x01, 0);
  4032     06B0  01F2               	clrf	clcd_write@mode
  4033     06B1  3001               	movlw	1
  4034     06B2  120A  118A  278B  120A  118A  	fcall	_clcd_write
  4035                           
  4036                           ;clcd.c: 30:     _delay((unsigned long)((500)*(20000000/4000000.0)));
  4037     06B7  3004               	movlw	4
  4038     06B8  00F7               	movwf	??_init_display_controller+1
  4039     06B9  303D               	movlw	61
  4040     06BA  00F6               	movwf	??_init_display_controller
  4041     06BB                     u1927:
  4042     06BB  0BF6               	decfsz	??_init_display_controller,f
  4043     06BC  2EBB               	goto	u1927
  4044     06BD  0BF7               	decfsz	??_init_display_controller+1,f
  4045     06BE  2EBB               	goto	u1927
  4046     06BF  2EC0               	nop2
  4047     06C0                     l1391:
  4048                           
  4049                           ;clcd.c: 31:     clcd_write(0x0C, 0);
  4050     06C0  01F2               	clrf	clcd_write@mode
  4051     06C1  300C               	movlw	12
  4052     06C2  120A  118A  278B  120A  118A  	fcall	_clcd_write
  4053     06C7                     l1393:
  4054                           
  4055                           ;clcd.c: 32:     _delay((unsigned long)((100)*(20000000/4000000.0)));
  4056     06C7  30A6               	movlw	166
  4057     06C8  00F6               	movwf	??_init_display_controller
  4058     06C9                     u1937:
  4059     06C9  0BF6               	decfsz	??_init_display_controller,f
  4060     06CA  2EC9               	goto	u1937
  4061     06CB  0000               	nop
  4062     06CC                     l259:
  4063     06CC  0008               	return
  4064     06CD                     __end_of_init_display_controller:
  4065                           
  4066                           	psect	text17
  4067     0FD8                     __ptext17:	
  4068 ;; *************** function _display_time_screen *****************
  4069 ;; Defined at:
  4070 ;;		line 30 in file "micro_oven.c"
  4071 ;; Parameters:    Size  Location     Type
  4072 ;;		None
  4073 ;; Auto vars:     Size  Location     Type
  4074 ;;		None
  4075 ;; Return value:  Size  Location     Type
  4076 ;;                  1    wreg      void 
  4077 ;; Registers used:
  4078 ;;		wreg, fsr0l, fsr0h, status,2, status,0, pclath, btemp1, cstack
  4079 ;; Tracked objects:
  4080 ;;		On entry : 0/0
  4081 ;;		On exit  : 0/0
  4082 ;;		Unchanged: 0/0
  4083 ;; Data sizes:     COMMON   BANK0   BANK1   BANK3   BANK2
  4084 ;;      Params:         0       0       0       0       0
  4085 ;;      Locals:         0       0       0       0       0
  4086 ;;      Temps:          0       0       0       0       0
  4087 ;;      Totals:         0       0       0       0       0
  4088 ;;Total ram usage:        0 bytes
  4089 ;; Hardware stack levels used: 1
  4090 ;; Hardware stack levels required when called: 2
  4091 ;; This function calls:
  4092 ;;		_clcd_print
  4093 ;; This function is called by:
  4094 ;;		_main
  4095 ;; This function uses a non-reentrant model
  4096 ;;
  4097                           
  4098     0FD8                     _display_time_screen:	
  4099                           ;psect for function _display_time_screen
  4100                           
  4101     0FD8                     l1645:	
  4102                           ;incstack = 0
  4103                           ; Regs used in _display_time_screen: [wreg-fsr0h+status,2+status,0+pclath+btemp1+cstack]
  4104                           
  4105                           
  4106                           ;micro_oven.c: 31:     clcd_print("SET TIME (MM:SS)", ((unsigned char)(0x80 + 0)));
  4107     0FD8  3001               	movlw	(low ((STR_13-__stringbase)| (0+32768)))& (0+255)
  4108     0FD9  1283               	bcf	3,5	;RP0=0, select bank0
  4109     0FDA  1303               	bcf	3,6	;RP1=0, select bank0
  4110     0FDB  00A0               	movwf	clcd_print@str
  4111     0FDC  3080               	movlw	128
  4112     0FDD  00A1               	movwf	clcd_print@str+1
  4113     0FDE  3080               	movlw	128
  4114     0FDF  00A2               	movwf	clcd_print@addr
  4115     0FE0  120A  118A  21C1  120A  158A  	fcall	_clcd_print
  4116                           
  4117                           ;micro_oven.c: 32:     clcd_print("TIME: 00:00", ((unsigned char)(0xC0 + 0)));
  4118     0FE5  3095               	movlw	(low ((STR_14-__stringbase)| (0+32768)))& (0+255)
  4119     0FE6  1283               	bcf	3,5	;RP0=0, select bank0
  4120     0FE7  1303               	bcf	3,6	;RP1=0, select bank0
  4121     0FE8  00A0               	movwf	clcd_print@str
  4122     0FE9  3080               	movlw	128
  4123     0FEA  00A1               	movwf	clcd_print@str+1
  4124     0FEB  30C0               	movlw	192
  4125     0FEC  00A2               	movwf	clcd_print@addr
  4126     0FED  120A  118A  21C1  120A  158A  	fcall	_clcd_print
  4127                           
  4128                           ;micro_oven.c: 33:     clcd_print("*:CLEAR  #:ENTER", ((unsigned char)(0xD0 + 0)));
  4129     0FF2  3012               	movlw	(low ((STR_15-__stringbase)| (0+32768)))& (0+255)
  4130     0FF3  1283               	bcf	3,5	;RP0=0, select bank0
  4131     0FF4  1303               	bcf	3,6	;RP1=0, select bank0
  4132     0FF5  00A0               	movwf	clcd_print@str
  4133     0FF6  3080               	movlw	128
  4134     0FF7  00A1               	movwf	clcd_print@str+1
  4135     0FF8  30D0               	movlw	208
  4136     0FF9  00A2               	movwf	clcd_print@addr
  4137     0FFA  120A  118A  21C1  120A  158A  	fcall	_clcd_print
  4138     0FFF                     l148:
  4139     0FFF  0008               	return
  4140     1000                     __end_of_display_time_screen:
  4141                           
  4142                           	psect	text18
  4143     07C1                     __ptext18:	
  4144 ;; *************** function _display_main_menu *****************
  4145 ;; Defined at:
  4146 ;;		line 23 in file "micro_oven.c"
  4147 ;; Parameters:    Size  Location     Type
  4148 ;;		None
  4149 ;; Auto vars:     Size  Location     Type
  4150 ;;		None
  4151 ;; Return value:  Size  Location     Type
  4152 ;;                  1    wreg      void 
  4153 ;; Registers used:
  4154 ;;		wreg, fsr0l, fsr0h, status,2, status,0, pclath, btemp1, cstack
  4155 ;; Tracked objects:
  4156 ;;		On entry : 0/0
  4157 ;;		On exit  : 0/0
  4158 ;;		Unchanged: 0/0
  4159 ;; Data sizes:     COMMON   BANK0   BANK1   BANK3   BANK2
  4160 ;;      Params:         0       0       0       0       0
  4161 ;;      Locals:         0       0       0       0       0
  4162 ;;      Temps:          0       0       0       0       0
  4163 ;;      Totals:         0       0       0       0       0
  4164 ;;Total ram usage:        0 bytes
  4165 ;; Hardware stack levels used: 1
  4166 ;; Hardware stack levels required when called: 2
  4167 ;; This function calls:
  4168 ;;		_clcd_print
  4169 ;; This function is called by:
  4170 ;;		_main
  4171 ;; This function uses a non-reentrant model
  4172 ;;
  4173                           
  4174     07C1                     _display_main_menu:	
  4175                           ;psect for function _display_main_menu
  4176                           
  4177     07C1                     l1643:	
  4178                           ;incstack = 0
  4179                           ; Regs used in _display_main_menu: [wreg-fsr0h+status,2+status,0+pclath+btemp1+cstack]
  4180                           
  4181                           
  4182                           ;micro_oven.c: 24:     clcd_print("1. MICRO", ((unsigned char)(0x80 + 0)));
  4183     07C1  30C2               	movlw	(low ((STR_9-__stringbase)| (0+32768)))& (0+255)
  4184     07C2  1283               	bcf	3,5	;RP0=0, select bank0
  4185     07C3  1303               	bcf	3,6	;RP1=0, select bank0
  4186     07C4  00A0               	movwf	clcd_print@str
  4187     07C5  3080               	movlw	128
  4188     07C6  00A1               	movwf	clcd_print@str+1
  4189     07C7  3080               	movlw	128
  4190     07C8  00A2               	movwf	clcd_print@addr
  4191     07C9  120A  118A  21C1  120A  118A  	fcall	_clcd_print
  4192                           
  4193                           ;micro_oven.c: 25:     clcd_print("2. GRILL", ((unsigned char)(0xC0 + 0)));
  4194     07CE  30B9               	movlw	(low ((STR_10-__stringbase)| (0+32768)))& (0+255)
  4195     07CF  1283               	bcf	3,5	;RP0=0, select bank0
  4196     07D0  1303               	bcf	3,6	;RP1=0, select bank0
  4197     07D1  00A0               	movwf	clcd_print@str
  4198     07D2  3080               	movlw	128
  4199     07D3  00A1               	movwf	clcd_print@str+1
  4200     07D4  30C0               	movlw	192
  4201     07D5  00A2               	movwf	clcd_print@addr
  4202     07D6  120A  118A  21C1  120A  118A  	fcall	_clcd_print
  4203                           
  4204                           ;micro_oven.c: 26:     clcd_print("3. CONVECTION", ((unsigned char)(0x90 + 0)));
  4205     07DB  305F               	movlw	(low ((STR_11-__stringbase)| (0+32768)))& (0+255)
  4206     07DC  1283               	bcf	3,5	;RP0=0, select bank0
  4207     07DD  1303               	bcf	3,6	;RP1=0, select bank0
  4208     07DE  00A0               	movwf	clcd_print@str
  4209     07DF  3080               	movlw	128
  4210     07E0  00A1               	movwf	clcd_print@str+1
  4211     07E1  3090               	movlw	144
  4212     07E2  00A2               	movwf	clcd_print@addr
  4213     07E3  120A  118A  21C1  120A  118A  	fcall	_clcd_print
  4214                           
  4215                           ;micro_oven.c: 27:     clcd_print("4. START", ((unsigned char)(0xD0 + 0)));
  4216     07E8  30CB               	movlw	(low ((STR_12-__stringbase)| (0+32768)))& (0+255)
  4217     07E9  1283               	bcf	3,5	;RP0=0, select bank0
  4218     07EA  1303               	bcf	3,6	;RP1=0, select bank0
  4219     07EB  00A0               	movwf	clcd_print@str
  4220     07EC  3080               	movlw	128
  4221     07ED  00A1               	movwf	clcd_print@str+1
  4222     07EE  30D0               	movlw	208
  4223     07EF  00A2               	movwf	clcd_print@addr
  4224     07F0  120A  118A  21C1  120A  118A  	fcall	_clcd_print
  4225     07F5                     l145:
  4226     07F5  0008               	return
  4227     07F6                     __end_of_display_main_menu:
  4228                           
  4229                           	psect	text19
  4230     01C1                     __ptext19:	
  4231 ;; *************** function _clcd_print *****************
  4232 ;; Defined at:
  4233 ;;		line 47 in file "clcd.c"
  4234 ;; Parameters:    Size  Location     Type
  4235 ;;  str             2    0[BANK0 ] PTR const unsigned char 
  4236 ;;		 -> STR_19(7), STR_18(8), STR_17(15), operation_mode@time_str(6), 
  4237 ;;		 -> STR_16(8), set_temp@temp_str(5), set_time@time_str(6), STR_15(17), 
  4238 ;;		 -> STR_14(12), STR_13(17), STR_12(9), STR_11(14), 
  4239 ;;		 -> STR_10(9), STR_9(9), STR_8(15), STR_7(12), 
  4240 ;;		 -> STR_6(14), STR_5(13), STR_4(15), STR_3(13), 
  4241 ;;		 -> STR_2(15), STR_1(12), 
  4242 ;;  addr            1    2[BANK0 ] unsigned char 
  4243 ;; Auto vars:     Size  Location     Type
  4244 ;;		None
  4245 ;; Return value:  Size  Location     Type
  4246 ;;                  1    wreg      void 
  4247 ;; Registers used:
  4248 ;;		wreg, fsr0l, fsr0h, status,2, status,0, pclath, btemp1, cstack
  4249 ;; Tracked objects:
  4250 ;;		On entry : 0/0
  4251 ;;		On exit  : 0/0
  4252 ;;		Unchanged: 0/0
  4253 ;; Data sizes:     COMMON   BANK0   BANK1   BANK3   BANK2
  4254 ;;      Params:         0       3       0       0       0
  4255 ;;      Locals:         0       0       0       0       0
  4256 ;;      Temps:          0       0       0       0       0
  4257 ;;      Totals:         0       3       0       0       0
  4258 ;;Total ram usage:        3 bytes
  4259 ;; Hardware stack levels used: 1
  4260 ;; Hardware stack levels required when called: 1
  4261 ;; This function calls:
  4262 ;;		_clcd_write
  4263 ;; This function is called by:
  4264 ;;		_main
  4265 ;;		_power_on_screen
  4266 ;;		_display_main_menu
  4267 ;;		_display_time_screen
  4268 ;;		_set_time
  4269 ;;		_set_temp
  4270 ;;		_operation_mode
  4271 ;; This function uses a non-reentrant model
  4272 ;;
  4273                           
  4274     01C1                     _clcd_print:	
  4275                           ;psect for function _clcd_print
  4276                           
  4277     01C1                     l1421:	
  4278                           ;incstack = 0
  4279                           ; Regs used in _clcd_print: [wreg-fsr0h+status,2+status,0+pclath+btemp1+cstack]
  4280                           
  4281                           
  4282                           ;clcd.c: 48:     clcd_write(addr, 0);
  4283     01C1  01F2               	clrf	clcd_write@mode
  4284     01C2  1283               	bcf	3,5	;RP0=0, select bank0
  4285     01C3  1303               	bcf	3,6	;RP1=0, select bank0
  4286     01C4  0822               	movf	clcd_print@addr,w
  4287     01C5  120A  118A  278B  120A  118A  	fcall	_clcd_write
  4288                           
  4289                           ;clcd.c: 49:     while (*str != '\0') {
  4290     01CA  29E3               	goto	l1427
  4291     01CB                     l1423:
  4292                           
  4293                           ;clcd.c: 50:         clcd_write(*str, 1);
  4294     01CB  01F2               	clrf	clcd_write@mode
  4295     01CC  0AF2               	incf	clcd_write@mode,f
  4296     01CD  0821               	movf	clcd_print@str+1,w
  4297     01CE  00FF               	movwf	btemp1
  4298     01CF  0820               	movf	clcd_print@str,w
  4299     01D0  0084               	movwf	4
  4300     01D1  120A  118A  2200  120A  118A  	fcall	stringtab
  4301     01D6  120A  118A  278B  120A  118A  	fcall	_clcd_write
  4302     01DB                     l1425:
  4303                           
  4304                           ;clcd.c: 51:         str++;
  4305     01DB  3001               	movlw	1
  4306     01DC  1283               	bcf	3,5	;RP0=0, select bank0
  4307     01DD  1303               	bcf	3,6	;RP1=0, select bank0
  4308     01DE  07A0               	addwf	clcd_print@str,f
  4309     01DF  1803               	skipnc
  4310     01E0  0AA1               	incf	clcd_print@str+1,f
  4311     01E1  3000               	movlw	0
  4312     01E2  07A1               	addwf	clcd_print@str+1,f
  4313     01E3                     l1427:
  4314                           
  4315                           ;clcd.c: 49:     while (*str != '\0') {
  4316     01E3  1283               	bcf	3,5	;RP0=0, select bank0
  4317     01E4  1303               	bcf	3,6	;RP1=0, select bank0
  4318     01E5  0821               	movf	clcd_print@str+1,w
  4319     01E6  00FF               	movwf	btemp1
  4320     01E7  0820               	movf	clcd_print@str,w
  4321     01E8  0084               	movwf	4
  4322     01E9  120A  118A  2200  120A  118A  	fcall	stringtab
  4323     01EE  3A00               	xorlw	0
  4324     01EF  1D03               	skipz
  4325     01F0  29F2               	goto	u721
  4326     01F1  29F3               	goto	u720
  4327     01F2                     u721:
  4328     01F2  29CB               	goto	l1423
  4329     01F3                     u720:
  4330     01F3                     l271:
  4331     01F3  0008               	return
  4332     01F4                     __end_of_clcd_print:
  4333                           
  4334                           	psect	text20
  4335     078B                     __ptext20:	
  4336 ;; *************** function _clcd_write *****************
  4337 ;; Defined at:
  4338 ;;		line 4 in file "clcd.c"
  4339 ;; Parameters:    Size  Location     Type
  4340 ;;  byte            1    wreg     unsigned char 
  4341 ;;  mode            1    2[COMMON] unsigned char 
  4342 ;; Auto vars:     Size  Location     Type
  4343 ;;  byte            1    5[COMMON] unsigned char 
  4344 ;; Return value:  Size  Location     Type
  4345 ;;                  1    wreg      void 
  4346 ;; Registers used:
  4347 ;;		wreg, status,2, status,0
  4348 ;; Tracked objects:
  4349 ;;		On entry : 0/0
  4350 ;;		On exit  : 0/0
  4351 ;;		Unchanged: 0/0
  4352 ;; Data sizes:     COMMON   BANK0   BANK1   BANK3   BANK2
  4353 ;;      Params:         1       0       0       0       0
  4354 ;;      Locals:         1       0       0       0       0
  4355 ;;      Temps:          2       0       0       0       0
  4356 ;;      Totals:         4       0       0       0       0
  4357 ;;Total ram usage:        4 bytes
  4358 ;; Hardware stack levels used: 1
  4359 ;; Hardware stack levels required when called: 1
  4360 ;; This function calls:
  4361 ;;		Nothing
  4362 ;; This function is called by:
  4363 ;;		_clear_screen
  4364 ;;		_init_display_controller
  4365 ;;		_clcd_putch
  4366 ;;		_clcd_print
  4367 ;; This function uses a non-reentrant model
  4368 ;;
  4369                           
  4370     078B                     _clcd_write:	
  4371                           ;psect for function _clcd_write
  4372                           
  4373                           
  4374                           ;incstack = 0
  4375                           ; Regs used in _clcd_write: [wreg+status,2+status,0]
  4376                           ;clcd_write@byte stored from wreg
  4377     078B  00F5               	movwf	clcd_write@byte
  4378     078C                     l1351:
  4379                           
  4380                           ;clcd.c: 5:     RE2 = (__bit)mode;
  4381     078C  1872               	btfsc	clcd_write@mode,0
  4382     078D  2F8F               	goto	u691
  4383     078E  2F93               	goto	u690
  4384     078F                     u691:
  4385     078F  1283               	bcf	3,5	;RP0=0, select bank0
  4386     0790  1303               	bcf	3,6	;RP1=0, select bank0
  4387     0791  1509               	bsf	9,2	;volatile
  4388     0792  2F96               	goto	u704
  4389     0793                     u690:
  4390     0793  1283               	bcf	3,5	;RP0=0, select bank0
  4391     0794  1303               	bcf	3,6	;RP1=0, select bank0
  4392     0795  1109               	bcf	9,2	;volatile
  4393     0796                     u704:
  4394     0796                     l1353:
  4395                           
  4396                           ;clcd.c: 6:     PORTD = byte & 0xF0;
  4397     0796  0875               	movf	clcd_write@byte,w
  4398     0797  39F0               	andlw	240
  4399     0798  0088               	movwf	8	;volatile
  4400     0799                     l1355:
  4401                           
  4402                           ;clcd.c: 7:     RE1 = 1;
  4403     0799  1489               	bsf	9,1	;volatile
  4404     079A                     l1357:
  4405                           
  4406                           ;clcd.c: 8:     _delay((unsigned long)((100)*(20000000/4000000.0)));
  4407     079A  30A6               	movlw	166
  4408     079B  00F3               	movwf	??_clcd_write
  4409     079C                     u1947:
  4410     079C  0BF3               	decfsz	??_clcd_write,f
  4411     079D  2F9C               	goto	u1947
  4412     079E  0000               	nop
  4413     079F                     l1359:
  4414                           
  4415                           ;clcd.c: 9:     RE1 = 0;
  4416     079F  1283               	bcf	3,5	;RP0=0, select bank0
  4417     07A0  1303               	bcf	3,6	;RP1=0, select bank0
  4418     07A1  1089               	bcf	9,1	;volatile
  4419     07A2                     l1361:
  4420                           
  4421                           ;clcd.c: 10:     PORTD = (unsigned char)((byte & 0x0F) << 4);
  4422     07A2  0875               	movf	clcd_write@byte,w
  4423     07A3  390F               	andlw	15
  4424     07A4  00F3               	movwf	??_clcd_write
  4425     07A5  3003               	movlw	3
  4426     07A6                     u715:
  4427     07A6  1003               	clrc
  4428     07A7  0DF3               	rlf	??_clcd_write,f
  4429     07A8  3EFF               	addlw	-1
  4430     07A9  1D03               	skipz
  4431     07AA  2FA6               	goto	u715
  4432     07AB  1003               	clrc
  4433     07AC  0D73               	rlf	??_clcd_write,w
  4434     07AD  0088               	movwf	8	;volatile
  4435     07AE                     l1363:
  4436                           
  4437                           ;clcd.c: 11:     RE1 = 1;
  4438     07AE  1489               	bsf	9,1	;volatile
  4439     07AF                     l1365:
  4440                           
  4441                           ;clcd.c: 12:     _delay((unsigned long)((100)*(20000000/4000000.0)));
  4442     07AF  30A6               	movlw	166
  4443     07B0  00F3               	movwf	??_clcd_write
  4444     07B1                     u1957:
  4445     07B1  0BF3               	decfsz	??_clcd_write,f
  4446     07B2  2FB1               	goto	u1957
  4447     07B3  0000               	nop
  4448     07B4                     l1367:
  4449                           
  4450                           ;clcd.c: 13:     RE1 = 0;
  4451     07B4  1283               	bcf	3,5	;RP0=0, select bank0
  4452     07B5  1303               	bcf	3,6	;RP1=0, select bank0
  4453     07B6  1089               	bcf	9,1	;volatile
  4454     07B7                     l1369:
  4455                           
  4456                           ;clcd.c: 14:     _delay((unsigned long)((4100)*(20000000/4000000.0)));
  4457     07B7  301B               	movlw	27
  4458     07B8  00F4               	movwf	??_clcd_write+1
  4459     07B9  309E               	movlw	158
  4460     07BA  00F3               	movwf	??_clcd_write
  4461     07BB                     u1967:
  4462     07BB  0BF3               	decfsz	??_clcd_write,f
  4463     07BC  2FBB               	goto	u1967
  4464     07BD  0BF4               	decfsz	??_clcd_write+1,f
  4465     07BE  2FBB               	goto	u1967
  4466     07BF  0000               	nop
  4467     07C0                     l256:
  4468     07C0  0008               	return
  4469     07C1                     __end_of_clcd_write:
  4470                           
  4471                           	psect	text21
  4472     070F                     __ptext21:	
  4473 ;; *************** function _isr *****************
  4474 ;; Defined at:
  4475 ;;		line 7 in file "isr.c"
  4476 ;; Parameters:    Size  Location     Type
  4477 ;;		None
  4478 ;; Auto vars:     Size  Location     Type
  4479 ;;		None
  4480 ;; Return value:  Size  Location     Type
  4481 ;;                  1    wreg      void 
  4482 ;; Registers used:
  4483 ;;		wreg, status,2, status,0
  4484 ;; Tracked objects:
  4485 ;;		On entry : 0/0
  4486 ;;		On exit  : 0/0
  4487 ;;		Unchanged: 0/0
  4488 ;; Data sizes:     COMMON   BANK0   BANK1   BANK3   BANK2
  4489 ;;      Params:         0       0       0       0       0
  4490 ;;      Locals:         0       0       0       0       0
  4491 ;;      Temps:          2       0       0       0       0
  4492 ;;      Totals:         2       0       0       0       0
  4493 ;;Total ram usage:        2 bytes
  4494 ;; Hardware stack levels used: 1
  4495 ;; This function calls:
  4496 ;;		Nothing
  4497 ;; This function is called by:
  4498 ;;		Interrupt level 1
  4499 ;; This function uses a non-reentrant model
  4500 ;;
  4501                           
  4502     070F                     _isr:	
  4503                           ;psect for function _isr
  4504                           
  4505     070F                     i1l1753:
  4506                           
  4507                           ;isr.c: 8:     static unsigned int count = 0;;isr.c: 10:     if (TMR2IF == 1) {
  4508     070F  1283               	bcf	3,5	;RP0=0, select bank0
  4509     0710  1303               	bcf	3,6	;RP1=0, select bank0
  4510     0711  1C8C               	btfss	12,1	;volatile
  4511     0712  2F14               	goto	u123_21
  4512     0713  2F15               	goto	u123_20
  4513     0714                     u123_21:
  4514     0714  2F4A               	goto	i1l21
  4515     0715                     u123_20:
  4516     0715                     i1l1755:
  4517                           
  4518                           ;isr.c: 11:         if (run_timer) {
  4519     0715  0838               	movf	_run_timer,w
  4520     0716  0439               	iorwf	_run_timer+1,w
  4521     0717  1903               	btfsc	3,2
  4522     0718  2F1A               	goto	u124_21
  4523     0719  2F1B               	goto	u124_20
  4524     071A                     u124_21:
  4525     071A  2F49               	goto	i1l1769
  4526     071B                     u124_20:
  4527     071B                     i1l1757:
  4528                           
  4529                           ;isr.c: 12:             if (++count == 450) {
  4530     071B  3001               	movlw	1
  4531     071C  07F9               	addwf	isr@count,f
  4532     071D  1803               	skipnc
  4533     071E  0AFA               	incf	isr@count+1,f
  4534     071F  3000               	movlw	0
  4535     0720  07FA               	addwf	isr@count+1,f
  4536     0721  30C2               	movlw	194
  4537     0722  0679               	xorwf	isr@count,w
  4538     0723  1D03               	skipz
  4539     0724  2F29               	goto	u125_21
  4540     0725  037A               	decf	isr@count+1,w
  4541     0726  1D03               	btfss	3,2
  4542     0727  2F29               	goto	u125_21
  4543     0728  2F2A               	goto	u125_20
  4544     0729                     u125_21:
  4545     0729  2F49               	goto	i1l1769
  4546     072A                     u125_20:
  4547     072A                     i1l1759:
  4548                           
  4549                           ;isr.c: 13:                 count = 0;
  4550     072A  01F9               	clrf	isr@count
  4551     072B  01FA               	clrf	isr@count+1
  4552     072C                     i1l1761:
  4553                           
  4554                           ;isr.c: 14:                 if (sec > 0) {
  4555     072C  083E               	movf	_sec,w
  4556     072D  043F               	iorwf	_sec+1,w
  4557     072E  1903               	btfsc	3,2
  4558     072F  2F31               	goto	u126_21
  4559     0730  2F32               	goto	u126_20
  4560     0731                     u126_21:
  4561     0731  2F39               	goto	i1l1765
  4562     0732                     u126_20:
  4563     0732                     i1l1763:
  4564                           
  4565                           ;isr.c: 15:                     sec--;
  4566     0732  3001               	movlw	1
  4567     0733  02BE               	subwf	_sec,f
  4568     0734  3000               	movlw	0
  4569     0735  1C03               	skipc
  4570     0736  03BF               	decf	_sec+1,f
  4571     0737  02BF               	subwf	_sec+1,f
  4572                           
  4573                           ;isr.c: 16:                 } else if (min > 0) {
  4574     0738  2F49               	goto	i1l1769
  4575     0739                     i1l1765:
  4576     0739  083C               	movf	_min,w
  4577     073A  043D               	iorwf	_min+1,w
  4578     073B  1903               	btfsc	3,2
  4579     073C  2F3E               	goto	u127_21
  4580     073D  2F3F               	goto	u127_20
  4581     073E                     u127_21:
  4582     073E  2F49               	goto	i1l1769
  4583     073F                     u127_20:
  4584     073F                     i1l1767:
  4585                           
  4586                           ;isr.c: 17:                     min--;
  4587     073F  3001               	movlw	1
  4588     0740  02BC               	subwf	_min,f
  4589     0741  3000               	movlw	0
  4590     0742  1C03               	skipc
  4591     0743  03BD               	decf	_min+1,f
  4592     0744  02BD               	subwf	_min+1,f
  4593                           
  4594                           ;isr.c: 18:                     sec = 59;
  4595     0745  303B               	movlw	59
  4596     0746  00BE               	movwf	_sec
  4597     0747  3000               	movlw	0
  4598     0748  00BF               	movwf	_sec+1
  4599     0749                     i1l1769:
  4600                           
  4601                           ;isr.c: 22:         TMR2IF = 0;
  4602     0749  108C               	bcf	12,1	;volatile
  4603     074A                     i1l21:
  4604     074A  0871               	movf	??_isr+1,w
  4605     074B  008A               	movwf	10
  4606     074C  0E70               	swapf	??_isr,w
  4607     074D  0083               	movwf	3
  4608     074E  0EFE               	swapf	btemp,f
  4609     074F  0E7E               	swapf	btemp,w
  4610     0750  0009               	retfie
  4611     0751                     __end_of_isr:
  4612     0002                     ___latbits      equ	2
  4613     007E                     btemp           set	126	;btemp
  4614     007E                     btemp0          set	126
  4615     007F                     btemp1          set	127
  4616     007E                     wtemp0          set	126
  4617     007F                     wtemp0a         set	127
  4618     007F                     ttemp0a         set	127
  4619     0080                     ltemp0a         set	128
  4620                           
  4621                           	psect	intentry
  4622     0004                     __pintentry:	
  4623                           ;incstack = 0
  4624                           ; Regs used in _isr: [wreg+status,2+status,0]
  4625                           
  4626     0004                     interrupt_function:
  4627     007E                     saved_w         set	btemp
  4628     0004  00FE               	movwf	btemp
  4629     0005  0E03               	swapf	3,w
  4630     0006  00F0               	movwf	??_isr
  4631     0007  080A               	movf	10,w
  4632     0008  00F1               	movwf	??_isr+1
  4633     0009  120A  118A  2F0F   	ljmp	_isr
  4634                           
  4635                           	psect	config
  4636                           
  4637                           ;Config register CONFIG @ 0x2007
  4638                           ;	Oscillator Selection bits
  4639                           ;	FOSC = 0x3, unprogrammed default
  4640                           ;	Watchdog Timer Enable bit
  4641                           ;	WDTE = OFF, WDT disabled
  4642                           ;	Power-up Timer Enable bit
  4643                           ;	PWRTE = 0x1, unprogrammed default
  4644                           ;	Brown-out Reset Enable bit
  4645                           ;	BOREN = 0x1, unprogrammed default
  4646                           ;	Low-Voltage (Single-Supply) In-Circuit Serial Programming Enable bit
  4647                           ;	LVP = 0x1, unprogrammed default
  4648                           ;	Data EEPROM Memory Code Protection bit
  4649                           ;	CPD = 0x1, unprogrammed default
  4650                           ;	Flash Program Memory Write Enable bits
  4651                           ;	WRT = 0x3, unprogrammed default
  4652                           ;	In-Circuit Debugger Mode bit
  4653                           ;	DEBUG = 0x1, unprogrammed default
  4654                           ;	Flash Program Memory Code Protection bit
  4655                           ;	CP = 0x1, unprogrammed default
  4656     2007                     	org	8199
  4657     2007  3FFB               	dw	16379

Data Sizes:
    Strings     234
    Constant    0
    Data        2
    BSS         14
    Persistent  0
    Stack       0

Auto Spaces:
    Space          Size  Autos    Used
    COMMON           14      9      12
    BANK0            80     20      33
    BANK1            80      0       0
    BANK3            96      0       0
    BANK2            96      0       0

Pointer List with Targets:

    clcd_print@str	PTR const unsigned char  size(2) Largest target is 17
		 -> operation_mode@time_str(BANK0[6]), set_temp@temp_str(BANK0[5]), set_time@time_str(BANK0[6]), STR_1(CODE[12]), 
		 -> STR_10(CODE[9]), STR_11(CODE[14]), STR_12(CODE[9]), STR_13(CODE[17]), 
		 -> STR_14(CODE[12]), STR_15(CODE[17]), STR_16(CODE[8]), STR_17(CODE[15]), 
		 -> STR_18(CODE[8]), STR_19(CODE[7]), STR_2(CODE[15]), STR_3(CODE[13]), 
		 -> STR_4(CODE[15]), STR_5(CODE[13]), STR_6(CODE[14]), STR_7(CODE[12]), 
		 -> STR_8(CODE[15]), STR_9(CODE[9]), 

    set_temp@temp	PTR unsigned int  size(1) Largest target is 2
		 -> temp(BANK0[2]), 

    set_time@min	PTR unsigned int  size(1) Largest target is 2
		 -> min(BANK0[2]), 

    set_time@sec	PTR unsigned int  size(1) Largest target is 2
		 -> sec(BANK0[2]), 


Critical Paths under _main in COMMON

    _set_time->___lwdiv
    _set_temp->___lwdiv
    _read_matrix_keypad->_scan_keypad
    _power_on_screen->_clcd_putch
    _power_on_screen->_clear_screen
    _clear_screen->_clcd_write
    _clcd_putch->_clcd_write
    _operation_mode->___lwdiv
    ___lwmod->___lwdiv
    _init_clcd->_init_display_controller
    _init_display_controller->_clcd_write
    _clcd_print->_clcd_write

Critical Paths under _isr in COMMON

    None.

Critical Paths under _main in BANK0

    _main->_set_time
    _set_time->___lwmod
    _set_temp->___lwmod
    _power_on_screen->_clcd_print
    _operation_mode->___lwmod
    _display_time_screen->_clcd_print
    _display_main_menu->_clcd_print

Critical Paths under _isr in BANK0

    None.

Critical Paths under _main in BANK1

    None.

Critical Paths under _isr in BANK1

    None.

Critical Paths under _main in BANK3

    None.

Critical Paths under _isr in BANK3

    None.

Critical Paths under _main in BANK2

    None.

Critical Paths under _isr in BANK2

    None.

Call Graph Tables:

 ---------------------------------------------------------------------------------
 (Depth) Function   	        Calls       Base Space   Used Autos Params    Refs
 ---------------------------------------------------------------------------------
 (0) _main                                                 4     4      0    6318
                                             16 BANK0      4     4      0
                         _clcd_print
                       _clear_screen
                  _display_main_menu
                _display_time_screen
                        _init_config
                     _operation_mode
                    _power_on_screen
                 _read_matrix_keypad
                           _set_temp
                           _set_time
 ---------------------------------------------------------------------------------
 (1) _set_time                                            11     9      2    1677
                                              5 BANK0     11     9      2
                            ___lwdiv
                            ___lwmod
                             ___wmul
                         _clcd_print
 ---------------------------------------------------------------------------------
 (1) _set_temp                                             9     8      1    1491
                                              5 BANK0      9     8      1
                            ___lwdiv
                            ___lwmod
                             ___wmul
                         _clcd_print
 ---------------------------------------------------------------------------------
 (2) ___wmul                                               6     2      4     100
                                              2 COMMON     6     2      4
 ---------------------------------------------------------------------------------
 (1) _read_matrix_keypad                                   2     2      0     210
                                              4 COMMON     2     2      0
                        _scan_keypad
 ---------------------------------------------------------------------------------
 (2) _scan_keypad                                          2     2      0      92
                                              2 COMMON     2     2      0
 ---------------------------------------------------------------------------------
 (1) _power_on_screen                                      5     5      0     576
                                              3 BANK0      5     5      0
                         _clcd_print
                         _clcd_putch
                       _clear_screen
 ---------------------------------------------------------------------------------
 (2) _clear_screen                                         2     2      0      92
                                              6 COMMON     2     2      0
                         _clcd_write
 ---------------------------------------------------------------------------------
 (2) _clcd_putch                                           2     1      1     145
                                              6 COMMON     2     1      1
                         _clcd_write
 ---------------------------------------------------------------------------------
 (1) _operation_mode                                      10     6      4    1103
                                              5 BANK0     10     6      4
                            ___lwdiv
                            ___lwmod
                         _clcd_print
 ---------------------------------------------------------------------------------
 (2) ___lwmod                                              5     1      4     268
                                              0 BANK0      5     1      4
                            ___lwdiv (ARG)
 ---------------------------------------------------------------------------------
 (2) ___lwdiv                                              7     3      4     277
                                              2 COMMON     7     3      4
 ---------------------------------------------------------------------------------
 (1) _init_config                                          0     0      0      92
                          _init_clcd
                 _init_matrix_keypad
                        _init_timer2
 ---------------------------------------------------------------------------------
 (2) _init_timer2                                          0     0      0       0
 ---------------------------------------------------------------------------------
 (2) _init_matrix_keypad                                   0     0      0       0
 ---------------------------------------------------------------------------------
 (2) _init_clcd                                            0     0      0      92
            _init_display_controller
 ---------------------------------------------------------------------------------
 (3) _init_display_controller                              2     2      0      92
                                              6 COMMON     2     2      0
                         _clcd_write
 ---------------------------------------------------------------------------------
 (1) _display_time_screen                                  0     0      0     203
                         _clcd_print
 ---------------------------------------------------------------------------------
 (1) _display_main_menu                                    0     0      0     203
                         _clcd_print
 ---------------------------------------------------------------------------------
 (2) _clcd_print                                           3     0      3     203
                                              0 BANK0      3     0      3
                         _clcd_write
 ---------------------------------------------------------------------------------
 (4) _clcd_write                                           4     3      1      92
                                              2 COMMON     4     3      1
 ---------------------------------------------------------------------------------
 Estimated maximum stack depth 4
 ---------------------------------------------------------------------------------
 (Depth) Function   	        Calls       Base Space   Used Autos Params    Refs
 ---------------------------------------------------------------------------------
 (5) _isr                                                  2     2      0       0
                                              0 COMMON     2     2      0
 ---------------------------------------------------------------------------------
 Estimated maximum stack depth 5
 ---------------------------------------------------------------------------------

 Call Graph Graphs:

 _main (ROOT)
   _clcd_print
     _clcd_write
   _clear_screen
     _clcd_write
   _display_main_menu
     _clcd_print
   _display_time_screen
     _clcd_print
   _init_config
     _init_clcd
       _init_display_controller
         _clcd_write
     _init_matrix_keypad
     _init_timer2
   _operation_mode
     ___lwdiv
     ___lwmod
       ___lwdiv (ARG)
     _clcd_print
   _power_on_screen
     _clcd_print
     _clcd_putch
       _clcd_write
     _clear_screen
   _read_matrix_keypad
     _scan_keypad
   _set_temp
     ___lwdiv
     ___lwmod
     ___wmul
     _clcd_print
   _set_time
     ___lwdiv
     ___lwmod
     ___wmul
     _clcd_print

 _isr (ROOT)

Address spaces:
Name               Size   Autos  Total    Usage
BANK3               96      0       0      0.0%
BITBANK3            96      0       0      0.0%
BANK2               96      0       0      0.0%
BITBANK2            96      0       0      0.0%
BANK1               80      0       0      0.0%
BITBANK1            80      0       0      0.0%
BANK0               80     20      33     41.2%
BITBANK0            80      0       0      0.0%
COMMON              14      9      12     85.7%
BITCOMMON           14      0       0      0.0%
DATA                 0      0      50      0.0%
STACK                0      0       0      0.0%


Microchip Technology PIC Macro Assembler V3.10 build 20250813170317 
Symbol Table                                                                                   Sun Jan 25 17:26:34 2026

            _display_time_screen 0FD8                                pc 0002                   clcd_print@addr 0022  
                             l72 0F8F                               fsr 0004              ___wmul@multiplicand 0074  
             _init_matrix_keypad 0F40                              l202 0F4F                              l122 0F3F  
                            l210 04E2                              l211 04E8                              l220 0528  
                            l221 0530                              l142 0F71                              l222 0536  
                            l214 04FE                              l223 053C                              l215 0506  
                            l207 04D4                              l216 050C                              l208 04DC  
                            l145 07F5                              l217 0512                              l209 0567  
                            l226 0552                              l139 0669                              l227 055A  
                            l235 0FB2                              l163 03E5                              l148 0FFF  
                            l228 0560                              l262 01FE                              l271 01F3  
                            l256 07C0                              l176 04BB                              l265 0F60  
                            l259 06CC                              l179 05F4                              l357 0FBF  
                            l359 0FD7                              l637 070E                              l647 078A  
                            _GIE 005F                              _RB0 0030                              _RB1 0031  
                            _RB2 0032                              _RC1 0039                              _RC2 003A  
                            _RD0 0040                              _RD1 0041                              _RD2 0042  
                            _RD3 0043                              _RE1 0049                              _RE2 004A  
                            _PR2 0092                              u704 0796                              u720 01F3  
                            u800 0510                              u721 01F2                              u801 050F  
                            u810 0528                              u730 04D4                              u715 07A6  
                            u811 0527                              u731 04D3                              u820 052E  
                            u740 04DA                              u821 052D                              u741 04D9  
                            u830 0534                              u750 04E0                              u831 0533  
                            u751 04DF                              u840 053A                              u760 04E6  
                            u920 0FD3                              u841 0539                              u761 04E5  
                            u921 0FD2                              u905 0FC0                              u690 0793  
                            u850 0552                              u770 04FE                              u691 078F  
                            u851 0551                              u771 04FD                              u915 0FC7  
                            u860 0558                              u780 0504                              u861 0557  
                            u781 0503                              u870 055E                              u790 050A  
                            u871 055D                              u791 0509                              u880 0564  
                            u881 0563                              u890 0FB9                              u891 0FB8  
                            _min 003C                              _sec 003E                              _isr 070F  
                 clcd_putch@addr 0076                              fsr0 0004                   clcd_putch@data 0077  
                            indf 0000              ?_init_matrix_keypad 0070             ?_display_time_screen 0070  
                           l2001 03AB                             l2011 03E9                             l2003 03AD  
                           l2021 0404                             l2013 03EF                             l2005 03C3  
                           l2101 0095                             l2031 044C                             l2023 041E  
                           l2015 03F5                             l2007 03D9                             l2103 009A  
                           l2111 00B7                             l1401 01F9                             l2041 0497  
                           l2033 0453                             l2025 0425                             l2017 03F8  
                           l2009 03DA                             l2201 0195                             l2113 00BD  
                           l2121 00DF                             l2105 00A7                             l1411 0F4D  
                           l1403 0F40                             l2051 0575                             l2043 04AD  
                           l2027 042B                             l2019 03FE                             l2211 01A5  
                           l2203 0197                             l2131 00F1                             l2123 00E5  
                           l2115 00BF                             l1421 01C1                             l1413 0F4E  
                           l1405 0F48                             l2061 05C1                             l2053 0589  
                           l1501 0FB3                             l2045 04AF                             l2037 045C  
                           l2205 019D                             l2125 00E7                             l2117 00C4  
                           l1351 078C                             l1423 01CB                             l1407 0F49  
                           l1415 0F33                             l2063 05C2                             l2055 059B  
                           l1431 04BC                             l1511 0FD3                             l1503 0FB5  
                           l2047 04B0                             l2039 0472                             l2207 019F  
                           l2151 010F                             l2135 00F3                             l2127 00EB  
                           l2119 00D1                             l2215 01AA                             l2071 002D  
                           l1361 07A2                             l1353 0796                             l1425 01DB  
                           l1409 0F4C                             l2065 05CD                             l2057 059D  
                           l2049 0568                             l1417 0F61                             l1601 0634  
                           l1441 04E0                             l1433 04C2                             l1505 0FB9  
                           l2209 01A0                             l2153 0114                             l2145 00FA  
                           l2129 00ED                             l2081 004B                             l2073 0032  
                           l1363 07AE                             l1355 0799                             l1427 01E3  
                           l1371 066A                             l2067 05DA                             l2059 05AF  
                           l1419 0F68                             l1611 0664                             l1603 063D  
                           l1451 04F0                             l1435 04C6                             l1507 0FC6  
                           l2171 014B                             l2155 011F                             l2147 0100  
                           l2091 0073                             l2083 0052                             l2075 0037  
                           l1365 07AF                             l1357 079A                             l1381 0695  
                           l1373 0672                             l2069 05E7                             l1429 0F51  
                           l1605 064B                             l1461 0510                             l1453 0504  
                           l1445 04E6                             l1437 04DA                             l1613 0F91  
                           l1509 0FCD                             l2181 015A                             l2173 0151  
                           l2165 012D                             l2157 0124                             l2149 0104  
                           l2093 0082                             l2085 0054                             l2077 003C  
                           l1367 07B4                             l1359 079F                             l1391 06C0  
                           l1383 0698                             l1375 0679                             l1607 064F  
                           l1623 0F9E                             l1615 0F97                             l2183 0167  
                           l2175 0153                             l2191 0181                             l2167 0136  
                           l2159 012A                             l2095 0087                             l2087 0059  
                           l2079 0046                             l1369 07B7                             l1393 06C7  
                           l1385 069F                             l1377 0689                             l1609 0655  
                           l1481 0540                             l1473 0534                             l1465 0516  
                           l1457 050A                             l1449 04EC                             l1625 0FA3  
                           l1617 0F9C                             l2193 0187                             l2185 0175  
                           l2177 0154                             l2169 0143                             l2089 0066  
                           l2097 008D                             l1643 07C1                             l1387 06AB  
                           l1379 068E                             l1395 01F4                             l1571 0F87  
                           l1563 0F72                             l1483 0544                             l1467 051A  
                           l1627 0FA8                             l1635 0FAA                             l2195 018B  
                           l2187 0178                             l2179 0155                             l2099 0093  
                           l1645 0FD8                             l1389 06B0                             l1397 01F7  
                           l1573 0F8A                             l1565 0F7C                             l1493 0564  
                           l1485 0558                             l1477 053A                             l1469 052E  
                           l1637 0FAF                             l2197 018D                             l2189 017D  
                           l1399 01F8                             l1575 0F8D                             l1567 0F81  
                           l1591 0613                             l1639 0FB1                             l2199 0193  
                           l1577 0F8E                             l1569 0F84                             l1921 06D5  
                           l1593 0619                             l1585 05F8                             l1497 0566  
                           l1489 055E                             l1931 06F6                             l1923 06D8  
                           l1595 0631                             l1587 0601                             l1579 05F5  
                           l1933 06FC                             l1925 06DF                             l1917 06CD  
                           l1589 060F                             l1935 06FD                             l1927 06E1  
                           l1919 06CF                             l1951 0765                             l1943 0751  
                           l1937 0704                             l1929 06E5                             l1953 0769  
                           l1945 0759                             l1961 0786                             l1939 070A  
                           l1955 0773                             l1947 075C                             l1971 0311  
                           l1957 0779                             l1949 0763                             l1981 0344  
                           l1973 0317                             l1965 02FD                             l1959 0780  
                           l1991 036F                             l1975 031D                             l1967 0303  
                           l1993 0376                             l1985 034D                             l1977 0337  
                           l1969 030E                             l1987 0354                             l1979 033E  
                           l1997 037F                             l1999 0395                             ?_isr 0070  
                           STR_1 02BC                             STR_2 025F                             STR_3 0297  
                           STR_4 0250                             STR_5 028A                             STR_6 027C  
                           STR_7 02B0                             STR_8 0241                             STR_9 02D1  
                           u1100 0FA8                             u1101 0FA7                             u1110 0FAF  
                           u1111 0FAE                             u1060 0619                             u1061 0618  
                           u1070 0655                             u1071 0654                             u1080 0F9C  
                           u1081 0F9B                             u1090 0FA3                             u1091 0FA2  
                           u1420 06D5                             u1421 06D4                             u1510 0769  
                           u1511 0768                             u1440 06E5                             u1520 0773  
                           u1600 0376                             u1441 06E4                             u1521 0772  
                           u1505 075D                             u1601 0375                             u1610 03EF  
                           u1435 06D9                             u1611 03EE                             u1460 06F6  
                           u1540 0786                             u1620 03FE                             u1700 00F9  
                           u1461 06F5                             u1541 0785                             u1525 076F  
                           u1621 03FD                             u1701 00F8                             u1630 0404  
                           u1550 0303                             u1710 0100                             u1455 06E6  
                           u1535 077A                             u1631 0403                             u1551 0302  
                           u1711 00FF                             u1480 070A                             u1640 042B  
                           u1560 0317                             u1720 0114                             u1481 0709  
                           u1465 06F2                             u1641 042A                             u1561 0316  
                           u1721 0113                             u1490 0759                             u1650 0453  
                           u1570 031D                             u1730 0124                             u1475 06FE  
                           u1491 0758                             u1651 0452                             u1571 031C  
                           u1731 0123                             u1580 0344                             u1740 012A  
                           u1660 0052                             u1581 0343                             u1741 0129  
                           u1661 0051                             u1590 0354                             u1750 014B  
                           u1670 0093                             u1591 0353                             u1751 014A  
                           u1671 0092                             u1807 007B                             u1760 0151  
                           u1680 00BD                             u1761 0150                             u1681 00BC  
                           u1817 00AF                             u1770 0187                             u1690 00E5  
                           u1907 06A1                             u1771 0186                             u1827 016F  
                           u1691 00E4                             u1780 0193                             u1917 06AD  
                           u1837 0609                             u1781 0192                             u1790 019D  
                           u1927 06BB                             u1847 0645                             u1791 019C  
                           u1937 06C9                             u1857 065D                             u1947 079C  
                           u1867 0F6C                             _PEIE 005E                             i1l21 074A  
                           u1957 07B1                             u1877 066E                             u1967 07BB  
                           u1887 067D                             u1897 068B                             _main 002D  
                           _temp 003A                             btemp 007E                             start 000C  
           ??_init_matrix_keypad 0072                   clcd_write@byte 0075                   clcd_write@mode 0072  
        __end_of_power_on_screen 066A                            ??_isr 0070                            ?_main 0070  
                          STR_10 02C8                            STR_11 026E                            STR_12 02DA  
                          STR_13 0210                            STR_14 02A4                            STR_15 0221  
                          STR_16 02E3                            STR_17 0232                            STR_18 02EB  
                          STR_19 02F3                  __end_of___lwdiv 070F                  __end_of___lwmod 078B  
                   ?_init_config 0070                            _PORTD 0008                            _TRISB 0086  
                          _TRISD 0088                     ?_init_timer2 0070             __end_of_clear_screen 0F72  
                          _nRBPU 040F            ??_display_time_screen 0076               _read_matrix_keypad 0F90  
                          btemp0 007E                            btemp1 007F                            _state 0040  
                          pclath 000A              ?_read_matrix_keypad 0070                            status 0003  
                          wtemp0 007E                     ?_scan_keypad 0070                  __initialization 000F  
                   __end_of_main 01C1             ??_read_matrix_keypad 0074                           ??_main 0030  
                         i1l1761 072C                           i1l1753 070F                           i1l1763 0732  
                         i1l1755 0715                           i1l1765 0739                           i1l1757 071B  
                         i1l1767 073F                           i1l1759 072A                           u123_20 0715  
                         i1l1769 0749                           u123_21 0714                           u124_20 071B  
                         u124_21 071A                           u125_20 072A                           u125_21 0729  
                         u126_20 0732                           u126_21 0731                           u127_20 073F  
                         u127_21 073E                           _TMR2IE 0461                           _TMR2IF 0061  
                         _TMR2ON 0092                           _TRISC1 0439                           _TRISC2 043A  
                         _TRISE1 0449                           _TRISE2 044A          _init_display_controller 066A  
                         ___wmul 0FB3                 ?_power_on_screen 0070                        ??___lwdiv 0076  
                      ??___lwmod 0079                     __pdataCOMMON 007B                 __end_of_set_temp 04BC  
               __end_of_set_time 03E6                           ltemp0a 0080                           saved_w 007E  
                         ttemp0a 007F                           wtemp0a 007F          __end_of__initialization 0029  
                 __pcstackCOMMON 0070                     __pidataBANK0 07F7                       __pbssBANK0 0034  
      ??_init_display_controller 0076                       _clcd_print 01C1                       _clcd_putch 0F50  
                     _clcd_write 078B                       __pmaintext 002D                     _clear_screen 0F61  
                        ?___wmul 0072                       __pintentry 0004                          _T2CKPS0 0090  
                        _T2CKPS1 0091                       __stringtab 0200                 set_temp@temp_str 0028  
                      ?_set_temp 0025                        ?_set_time 0025           operation_mode@time_str 0029  
                        ___lwdiv 06CD                          ___lwmod 0751                          __ptext1 02FA  
                        __ptext2 03E6                          __ptext3 0FB3                          __ptext4 0F90  
                        __ptext5 04BC                          __ptext6 05F5                          __ptext7 0F61  
    __end_of_display_time_screen 1000                          __ptext8 0F50                          __ptext9 0568  
__end_of_init_display_controller 06CD                __end_of_init_clcd 01FF                 set_time@time_str 0029  
                        main@key 0033             end_of_initialization 0029                      set_temp@key 002D  
                    set_temp@pos 0034                      set_time@key 002F                      set_time@min 0025  
                    set_time@sec 0026                      set_time@pos 0036                   _operation_mode 0568  
                    ?_clcd_print 0020                      ?_clcd_putch 0076                      ?_clcd_write 0072  
                     ??_set_temp 0026                       ??_set_time 0027                    clcd_print@str 0020  
         __end_of_operation_mode 05F5                   __end_of___wmul 0FD8                    __pidataCOMMON 07F6  
            start_initialization 000F                     scan_keypad@i 0072           read_matrix_keypad@mode 0074  
         read_matrix_keypad@once 007B                      __end_of_isr 0751                  ?_operation_mode 0025  
                       ??___wmul 0076                      __pdataBANK0 0040                    ??_init_config 0078  
                  ??_init_timer2 0072                      __pbssCOMMON 0079                        ___latbits 0002  
                  __pcstackBANK0 0020                operation_mode@min 0025                operation_mode@sec 0027  
                  ??_scan_keypad 0072                 ___lwdiv@dividend 0074             power_on_screen@i_147 0027  
                       ?___lwdiv 0072                         ?___lwmod 0020                        __pstrings 0200  
              _display_main_menu 07C1                 ___lwdiv@quotient 0077                        _init_clcd 01F4  
            __end_of_init_config 0F90                ??_power_on_screen 0023               ?_display_main_menu 0070  
            __end_of_init_timer2 0F40         ?_init_display_controller 0070                interrupt_function 0004  
                 ___wmul@product 0076                     ??_clcd_print 0076                     ??_clcd_putch 0077  
     __end_of_init_matrix_keypad 0F50                     ??_clcd_write 0073              ??_display_main_menu 0076  
            __end_of_scan_keypad 0568                      __stringbase 020F                ___wmul@multiplier 0072  
                      _run_timer 0038        __end_of_display_main_menu 07F6               __end_of_clcd_print 01F4  
             __end_of_clcd_putch 0F61               __end_of_clcd_write 07C1                       ?_init_clcd 0070  
          read_matrix_keypad@key 0075       __end_of_read_matrix_keypad 0FB3               __end_of__stringtab 0210  
                    _init_config 0F72                      _init_timer2 0F33                  ___lwdiv@divisor 0072  
               ??_operation_mode 0079                  ___lwdiv@counter 0076                         __ptext10 0751  
                       __ptext11 06CD                         __ptext20 078B                         __ptext12 0F72  
                       __ptext21 070F                         __ptext13 0F33                         __ptext14 0F40  
                       __ptext15 01F4                         __ptext16 066A                         __ptext17 0FD8  
                       __ptext18 07C1                         __ptext19 01C1                      _scan_keypad 04BC  
                  ?_clear_screen 0070                         _set_temp 03E6                         _set_time 02FA  
                       isr@count 0079                     set_temp@temp 0025                      ??_init_clcd 0078  
                       intlevel1 0000                 ___lwmod@dividend 0022                        stringcode 020A  
                 ??_clear_screen 0076                  _power_on_screen 05F5                  ___lwmod@divisor 0020  
                ___lwmod@counter 0024                         stringdir 020A                         stringtab 0200  
               power_on_screen@i 0026  
